
Dump of file Algorithm.masm.obj

File Type: COFF OBJECT

FILE HEADER VALUES
            8664 machine (x64)
               3 number of sections
        67C5E717 time date stamp Mon Mar  3 19:29:59 2025
             85E file pointer to symbol table
              14 number of symbols
               0 size of optional header
               0 characteristics

SECTION HEADER #1
.text$mn name
       0 physical address
       0 virtual address
     630 size of raw data
      8C file pointer to raw data (0000008C to 000006BB)
     6BC file pointer to relocation table
       0 file pointer to line numbers
      1B number of relocations
       0 number of line numbers
60500020 flags
         Code
         16 byte align
         Execute Read

function_Log2_9B4AE8B4638666D35C324AC1AFA2D08DC9467449:
  0000000000000000: 55                 push        rbp
  0000000000000001: 56                 push        rsi
  0000000000000002: 57                 push        rdi
  0000000000000003: 41 54              push        r12
  0000000000000005: 41 55              push        r13
  0000000000000007: 53                 push        rbx
  0000000000000008: 53                 push        rbx
  0000000000000009: 48 83 EC 60        sub         rsp,60h
  000000000000000D: 48 8D 6C 24 20     lea         rbp,[rsp+20h]
  0000000000000012: 48 8B F1           mov         rsi,rcx
  0000000000000015: 48 89 75 08        mov         qword ptr [rbp+8],rsi
  0000000000000019: 48 B8 D1 00 00 00  mov         rax,5B0619DB000000D1h
                    DB 19 06 5B
  0000000000000023: 48 8B D0           mov         rdx,rax
  0000000000000026: 48 8D 7D 18        lea         rdi,[rbp+18h]
  000000000000002A: 48 8B CF           mov         rcx,rdi
  000000000000002D: E8 00 00 00 00     call        constructor_TraceEntry_26E1695E71A0E35C2150DA4E6BD1B4A55011008F
  0000000000000032: 48 8D 75 18        lea         rsi,[rbp+18h]
  0000000000000036: 48 8B D6           mov         rdx,rsi
  0000000000000039: 48 8D 7D 30        lea         rdi,[rbp+30h]
  000000000000003D: 48 8B CF           mov         rcx,rdi
  0000000000000040: E8 00 00 00 00     call        constructor_TraceGuard_BA2365F880229A4A3C2607337F6B3917C2419B9F
  0000000000000045: 48 C7 C3 10 00 00  mov         rbx,10h
                    00
  000000000000004C: 48 8D 4D 18        lea         rcx,[rbp+18h]
  0000000000000050: 48 8D 34 0B        lea         rsi,[rbx+rcx]
  0000000000000054: B8 C5 01 00 00     mov         eax,1C5h
  0000000000000059: 89 06              mov         dword ptr [rsi],eax
  000000000000005B: 48 C7 C3 10 00 00  mov         rbx,10h
                    00
  0000000000000062: 48 8D 4D 18        lea         rcx,[rbp+18h]
  0000000000000066: 48 8D 34 0B        lea         rsi,[rbx+rcx]
  000000000000006A: B8 C6 01 00 00     mov         eax,1C6h
  000000000000006F: 89 06              mov         dword ptr [rsi],eax
  0000000000000071: B0 00              mov         al,0
  0000000000000073: 48 0F BE F0        movsx       rsi,al
  0000000000000077: 48 89 75 10        mov         qword ptr [rbp+10h],rsi
  000000000000007B: 48 C7 C3 10 00 00  mov         rbx,10h
                    00
  0000000000000082: 48 8D 4D 18        lea         rcx,[rbp+18h]
  0000000000000086: 48 8D 34 0B        lea         rsi,[rbx+rcx]
  000000000000008A: B8 C7 01 00 00     mov         eax,1C7h
  000000000000008F: 89 06              mov         dword ptr [rsi],eax
  0000000000000091: E9 8F 00 00 00     jmp         0000000000000125
  0000000000000096: 48 C7 C3 10 00 00  mov         rbx,10h
                    00
  000000000000009D: 48 8D 4D 18        lea         rcx,[rbp+18h]
  00000000000000A1: 48 8D 34 0B        lea         rsi,[rbx+rcx]
  00000000000000A5: B8 C8 01 00 00     mov         eax,1C8h
  00000000000000AA: 89 06              mov         dword ptr [rsi],eax
  00000000000000AC: 48 C7 C3 10 00 00  mov         rbx,10h
                    00
  00000000000000B3: 48 8D 4D 18        lea         rcx,[rbp+18h]
  00000000000000B7: 48 8D 34 0B        lea         rsi,[rbx+rcx]
  00000000000000BB: B8 C9 01 00 00     mov         eax,1C9h
  00000000000000C0: 89 06              mov         dword ptr [rsi],eax
  00000000000000C2: 48 8B 75 08        mov         rsi,qword ptr [rbp+8]
  00000000000000C6: B0 01              mov         al,1
  00000000000000C8: 48 0F BE F8        movsx       rdi,al
  00000000000000CC: 40 8A CF           mov         cl,dil
  00000000000000CF: 48 D3 FE           sar         rsi,cl
  00000000000000D2: 4C 8B E6           mov         r12,rsi
  00000000000000D5: 4C 89 65 08        mov         qword ptr [rbp+8],r12
  00000000000000D9: 48 C7 C3 10 00 00  mov         rbx,10h
                    00
  00000000000000E0: 48 8D 4D 18        lea         rcx,[rbp+18h]
  00000000000000E4: 48 8D 34 0B        lea         rsi,[rbx+rcx]
  00000000000000E8: B8 CA 01 00 00     mov         eax,1CAh
  00000000000000ED: 89 06              mov         dword ptr [rsi],eax
  00000000000000EF: 48 8B 75 10        mov         rsi,qword ptr [rbp+10h]
  00000000000000F3: B0 01              mov         al,1
  00000000000000F5: 48 0F BE F8        movsx       rdi,al
  00000000000000F9: 48 03 F7           add         rsi,rdi
  00000000000000FC: 4C 8B E6           mov         r12,rsi
  00000000000000FF: 4C 89 65 10        mov         qword ptr [rbp+10h],r12
  0000000000000103: 48 8B 75 10        mov         rsi,qword ptr [rbp+10h]
  0000000000000107: EB 1C              jmp         0000000000000125
  0000000000000109: 48 C7 C3 10 00 00  mov         rbx,10h
                    00
  0000000000000110: 48 8D 4D 18        lea         rcx,[rbp+18h]
  0000000000000114: 48 8D 34 0B        lea         rsi,[rbx+rcx]
  0000000000000118: B8 CC 01 00 00     mov         eax,1CCh
  000000000000011D: 89 06              mov         dword ptr [rsi],eax
  000000000000011F: 48 8B 75 10        mov         rsi,qword ptr [rbp+10h]
  0000000000000123: EB 1C              jmp         0000000000000141
  0000000000000125: B0 01              mov         al,1
  0000000000000127: 48 0F BE F8        movsx       rdi,al
  000000000000012B: 4C 8B 65 08        mov         r12,qword ptr [rbp+8]
  000000000000012F: 49 3B FC           cmp         rdi,r12
  0000000000000132: 41 0F 9C C5        setl        r13b
  0000000000000136: 45 0A ED           or          r13b,r13b
  0000000000000139: 0F 85 57 FF FF FF  jne         0000000000000096
  000000000000013F: EB C8              jmp         0000000000000109
  0000000000000141: 48 8D 7D 30        lea         rdi,[rbp+30h]
  0000000000000145: 48 8B CF           mov         rcx,rdi
  0000000000000148: E8 00 00 00 00     call        destructor_TraceGuard_82262E3D79E486D306C249AA83E2FB687C3A84E2
  000000000000014D: 48 8B C6           mov         rax,rsi
  0000000000000150: EB 18              jmp         000000000000016A
  0000000000000152: 48 8D 75 30        lea         rsi,[rbp+30h]
  0000000000000156: 48 8B CE           mov         rcx,rsi
  0000000000000159: E8 00 00 00 00     call        destructor_TraceGuard_82262E3D79E486D306C249AA83E2FB687C3A84E2
  000000000000015E: 48 C7 C3 00 00 00  mov         rbx,0
                    00
  0000000000000165: 48 8B C3           mov         rax,rbx
  0000000000000168: EB 00              jmp         000000000000016A
  000000000000016A: 48 8D 65 40        lea         rsp,[rbp+40h]
  000000000000016E: 5B                 pop         rbx
  000000000000016F: 5B                 pop         rbx
  0000000000000170: 41 5D              pop         r13
  0000000000000172: 41 5C              pop         r12
  0000000000000174: 5F                 pop         rdi
  0000000000000175: 5E                 pop         rsi
  0000000000000176: 5D                 pop         rbp
  0000000000000177: C3                 ret
function_IsPowerOfTwo_D892CEDBDF4E89299E5E8AD450CA0A4A01FD5D22:
  0000000000000178: 55                 push        rbp
  0000000000000179: 56                 push        rsi
  000000000000017A: 57                 push        rdi
  000000000000017B: 41 54              push        r12
  000000000000017D: 53                 push        rbx
  000000000000017E: 48 83 EC 70        sub         rsp,70h
  0000000000000182: 48 8D 6C 24 20     lea         rbp,[rsp+20h]
  0000000000000187: 48 8B F1           mov         rsi,rcx
  000000000000018A: 48 8B FA           mov         rdi,rdx
  000000000000018D: 48 89 75 08        mov         qword ptr [rbp+8],rsi
  0000000000000191: 48 89 7D 10        mov         qword ptr [rbp+10h],rdi
  0000000000000195: 48 B8 D2 00 00 00  mov         rax,5B0619DB000000D2h
                    DB 19 06 5B
  000000000000019F: 48 8B D0           mov         rdx,rax
  00000000000001A2: 48 8D 7D 28        lea         rdi,[rbp+28h]
  00000000000001A6: 48 8B CF           mov         rcx,rdi
  00000000000001A9: E8 00 00 00 00     call        constructor_TraceEntry_26E1695E71A0E35C2150DA4E6BD1B4A55011008F
  00000000000001AE: 48 8D 75 28        lea         rsi,[rbp+28h]
  00000000000001B2: 48 8B D6           mov         rdx,rsi
  00000000000001B5: 48 8D 7D 40        lea         rdi,[rbp+40h]
  00000000000001B9: 48 8B CF           mov         rcx,rdi
  00000000000001BC: E8 00 00 00 00     call        constructor_TraceGuard_BA2365F880229A4A3C2607337F6B3917C2419B9F
  00000000000001C1: 48 C7 C3 10 00 00  mov         rbx,10h
                    00
  00000000000001C8: 48 8D 4D 28        lea         rcx,[rbp+28h]
  00000000000001CC: 48 8D 34 0B        lea         rsi,[rbx+rcx]
  00000000000001D0: B8 D0 01 00 00     mov         eax,1D0h
  00000000000001D5: 89 06              mov         dword ptr [rsi],eax
  00000000000001D7: 48 C7 C3 10 00 00  mov         rbx,10h
                    00
  00000000000001DE: 48 8D 4D 28        lea         rcx,[rbp+28h]
  00000000000001E2: 48 8D 34 0B        lea         rsi,[rbx+rcx]
  00000000000001E6: B8 D1 01 00 00     mov         eax,1D1h
  00000000000001EB: 89 06              mov         dword ptr [rsi],eax
  00000000000001ED: B0 02              mov         al,2
  00000000000001EF: 48 0F B6 F0        movzx       rsi,al
  00000000000001F3: 48 89 75 18        mov         qword ptr [rbp+18h],rsi
  00000000000001F7: 48 C7 C3 10 00 00  mov         rbx,10h
                    00
  00000000000001FE: 48 8D 4D 28        lea         rcx,[rbp+28h]
  0000000000000202: 48 8D 34 0B        lea         rsi,[rbx+rcx]
  0000000000000206: B8 D2 01 00 00     mov         eax,1D2h
  000000000000020B: 89 06              mov         dword ptr [rsi],eax
  000000000000020D: B0 01              mov         al,1
  000000000000020F: 0F BE F0           movsx       esi,al
  0000000000000212: 48 8B 7D 10        mov         rdi,qword ptr [rbp+10h]
  0000000000000216: 89 37              mov         dword ptr [rdi],esi
  0000000000000218: 48 C7 C3 10 00 00  mov         rbx,10h
                    00
  000000000000021F: 48 8D 4D 28        lea         rcx,[rbp+28h]
  0000000000000223: 48 8D 34 0B        lea         rsi,[rbx+rcx]
  0000000000000227: B8 D3 01 00 00     mov         eax,1D3h
  000000000000022C: 89 06              mov         dword ptr [rsi],eax
  000000000000022E: E9 A5 00 00 00     jmp         00000000000002D8
  0000000000000233: 48 C7 C3 10 00 00  mov         rbx,10h
                    00
  000000000000023A: 48 8D 4D 28        lea         rcx,[rbp+28h]
  000000000000023E: 48 8D 34 0B        lea         rsi,[rbx+rcx]
  0000000000000242: B8 D4 01 00 00     mov         eax,1D4h
  0000000000000247: 89 06              mov         dword ptr [rsi],eax
  0000000000000249: 48 C7 C3 10 00 00  mov         rbx,10h
                    00
  0000000000000250: 48 8D 4D 28        lea         rcx,[rbp+28h]
  0000000000000254: 48 8D 34 0B        lea         rsi,[rbx+rcx]
  0000000000000258: B8 D5 01 00 00     mov         eax,1D5h
  000000000000025D: 89 06              mov         dword ptr [rsi],eax
  000000000000025F: 48 8B 75 18        mov         rsi,qword ptr [rbp+18h]
  0000000000000263: B0 01              mov         al,1
  0000000000000265: 48 0F B6 F8        movzx       rdi,al
  0000000000000269: 40 8A CF           mov         cl,dil
  000000000000026C: 48 D3 E6           shl         rsi,cl
  000000000000026F: 4C 8B E6           mov         r12,rsi
  0000000000000272: 4C 89 65 18        mov         qword ptr [rbp+18h],r12
  0000000000000276: 48 C7 C3 10 00 00  mov         rbx,10h
                    00
  000000000000027D: 48 8D 4D 28        lea         rcx,[rbp+28h]
  0000000000000281: 48 8D 34 0B        lea         rsi,[rbx+rcx]
  0000000000000285: B8 D6 01 00 00     mov         eax,1D6h
  000000000000028A: 89 06              mov         dword ptr [rsi],eax
  000000000000028C: 48 8B 75 10        mov         rsi,qword ptr [rbp+10h]
  0000000000000290: 8B 3E              mov         edi,dword ptr [rsi]
  0000000000000292: B0 01              mov         al,1
  0000000000000294: 0F BE F0           movsx       esi,al
  0000000000000297: 03 FE              add         edi,esi
  0000000000000299: 44 8B E7           mov         r12d,edi
  000000000000029C: 48 8B 75 10        mov         rsi,qword ptr [rbp+10h]
  00000000000002A0: 44 89 26           mov         dword ptr [rsi],r12d
  00000000000002A3: 48 8B 75 10        mov         rsi,qword ptr [rbp+10h]
  00000000000002A7: EB 2F              jmp         00000000000002D8
  00000000000002A9: 48 C7 C3 10 00 00  mov         rbx,10h
                    00
  00000000000002B0: 48 8D 4D 28        lea         rcx,[rbp+28h]
  00000000000002B4: 48 8D 34 0B        lea         rsi,[rbx+rcx]
  00000000000002B8: B8 D8 01 00 00     mov         eax,1D8h
  00000000000002BD: 89 06              mov         dword ptr [rsi],eax
  00000000000002BF: 48 8B 75 08        mov         rsi,qword ptr [rbp+8]
  00000000000002C3: 48 8B 7D 18        mov         rdi,qword ptr [rbp+18h]
  00000000000002C7: 48 3B F7           cmp         rsi,rdi
  00000000000002CA: 41 0F 94 C4        sete        r12b
  00000000000002CE: 45 0A E4           or          r12b,r12b
  00000000000002D1: 75 3E              jne         0000000000000311
  00000000000002D3: E9 89 00 00 00     jmp         0000000000000361
  00000000000002D8: 48 8B 75 18        mov         rsi,qword ptr [rbp+18h]
  00000000000002DC: B0 00              mov         al,0
  00000000000002DE: 48 0F B6 F8        movzx       rdi,al
  00000000000002E2: 48 3B F7           cmp         rsi,rdi
  00000000000002E5: 41 0F 94 C4        sete        r12b
  00000000000002E9: 41 8A F4           mov         sil,r12b
  00000000000002EC: 40 80 F6 01        xor         sil,1
  00000000000002F0: 40 0A F6           or          sil,sil
  00000000000002F3: 75 02              jne         00000000000002F7
  00000000000002F5: EB B2              jmp         00000000000002A9
  00000000000002F7: 48 8B 75 18        mov         rsi,qword ptr [rbp+18h]
  00000000000002FB: 48 8B 7D 08        mov         rdi,qword ptr [rbp+8]
  00000000000002FF: 48 3B F7           cmp         rsi,rdi
  0000000000000302: 41 0F 92 C4        setb        r12b
  0000000000000306: 45 0A E4           or          r12b,r12b
  0000000000000309: 0F 85 24 FF FF FF  jne         0000000000000233
  000000000000030F: EB 98              jmp         00000000000002A9
  0000000000000311: 48 C7 C3 10 00 00  mov         rbx,10h
                    00
  0000000000000318: 48 8D 4D 28        lea         rcx,[rbp+28h]
  000000000000031C: 48 8D 34 0B        lea         rsi,[rbx+rcx]
  0000000000000320: B8 D9 01 00 00     mov         eax,1D9h
  0000000000000325: 89 06              mov         dword ptr [rsi],eax
  0000000000000327: 48 C7 C3 10 00 00  mov         rbx,10h
                    00
  000000000000032E: 48 8D 4D 28        lea         rcx,[rbp+28h]
  0000000000000332: 48 8D 34 0B        lea         rsi,[rbx+rcx]
  0000000000000336: B8 DA 01 00 00     mov         eax,1DAh
  000000000000033B: 89 06              mov         dword ptr [rsi],eax
  000000000000033D: 48 8D 75 40        lea         rsi,[rbp+40h]
  0000000000000341: 48 8B CE           mov         rcx,rsi
  0000000000000344: E8 00 00 00 00     call        destructor_TraceGuard_82262E3D79E486D306C249AA83E2FB687C3A84E2
  0000000000000349: B3 01              mov         bl,1
  000000000000034B: 8A C3              mov         al,bl
  000000000000034D: EB 54              jmp         00000000000003A3
  000000000000034F: 48 8D 75 40        lea         rsi,[rbp+40h]
  0000000000000353: 48 8B CE           mov         rcx,rsi
  0000000000000356: E8 00 00 00 00     call        destructor_TraceGuard_82262E3D79E486D306C249AA83E2FB687C3A84E2
  000000000000035B: B3 00              mov         bl,0
  000000000000035D: 8A C3              mov         al,bl
  000000000000035F: EB 42              jmp         00000000000003A3
  0000000000000361: 48 C7 C3 10 00 00  mov         rbx,10h
                    00
  0000000000000368: 48 8D 4D 28        lea         rcx,[rbp+28h]
  000000000000036C: 48 8D 34 0B        lea         rsi,[rbx+rcx]
  0000000000000370: B8 DD 01 00 00     mov         eax,1DDh
  0000000000000375: 89 06              mov         dword ptr [rsi],eax
  0000000000000377: 48 C7 C3 10 00 00  mov         rbx,10h
                    00
  000000000000037E: 48 8D 4D 28        lea         rcx,[rbp+28h]
  0000000000000382: 48 8D 34 0B        lea         rsi,[rbx+rcx]
  0000000000000386: B8 DE 01 00 00     mov         eax,1DEh
  000000000000038B: 89 06              mov         dword ptr [rsi],eax
  000000000000038D: 48 8D 75 40        lea         rsi,[rbp+40h]
  0000000000000391: 48 8B CE           mov         rcx,rsi
  0000000000000394: E8 00 00 00 00     call        destructor_TraceGuard_82262E3D79E486D306C249AA83E2FB687C3A84E2
  0000000000000399: B3 00              mov         bl,0
  000000000000039B: 8A C3              mov         al,bl
  000000000000039D: EB 04              jmp         00000000000003A3
  000000000000039F: EB AE              jmp         000000000000034F
  00000000000003A1: EB AC              jmp         000000000000034F
  00000000000003A3: 48 8D 65 50        lea         rsp,[rbp+50h]
  00000000000003A7: 5B                 pop         rbx
  00000000000003A8: 41 5C              pop         r12
  00000000000003AA: 5F                 pop         rdi
  00000000000003AB: 5E                 pop         rsi
  00000000000003AC: 5D                 pop         rbp
  00000000000003AD: C3                 ret
function_InitRand_DBB03E4F58D19E4E95CCAE2AA81C163C12C8618F:
  00000000000003AE: 55                 push        rbp
  00000000000003AF: 56                 push        rsi
  00000000000003B0: 57                 push        rdi
  00000000000003B1: 53                 push        rbx
  00000000000003B2: 53                 push        rbx
  00000000000003B3: 48 83 EC 50        sub         rsp,50h
  00000000000003B7: 48 8D 6C 24 20     lea         rbp,[rsp+20h]
  00000000000003BC: 8B F1              mov         esi,ecx
  00000000000003BE: 89 75 08           mov         dword ptr [rbp+8],esi
  00000000000003C1: 48 B8 D3 00 00 00  mov         rax,5B0619DB000000D3h
                    DB 19 06 5B
  00000000000003CB: 48 8B D0           mov         rdx,rax
  00000000000003CE: 48 8D 7D 10        lea         rdi,[rbp+10h]
  00000000000003D2: 48 8B CF           mov         rcx,rdi
  00000000000003D5: E8 00 00 00 00     call        constructor_TraceEntry_26E1695E71A0E35C2150DA4E6BD1B4A55011008F
  00000000000003DA: 48 8D 75 10        lea         rsi,[rbp+10h]
  00000000000003DE: 48 8B D6           mov         rdx,rsi
  00000000000003E1: 48 8D 7D 28        lea         rdi,[rbp+28h]
  00000000000003E5: 48 8B CF           mov         rcx,rdi
  00000000000003E8: E8 00 00 00 00     call        constructor_TraceGuard_BA2365F880229A4A3C2607337F6B3917C2419B9F
  00000000000003ED: 48 C7 C3 10 00 00  mov         rbx,10h
                    00
  00000000000003F4: 48 8D 4D 10        lea         rcx,[rbp+10h]
  00000000000003F8: 48 8D 34 0B        lea         rsi,[rbx+rcx]
  00000000000003FC: B8 95 03 00 00     mov         eax,395h
  0000000000000401: 89 06              mov         dword ptr [rsi],eax
  0000000000000403: 48 C7 C3 10 00 00  mov         rbx,10h
                    00
  000000000000040A: 48 8D 4D 10        lea         rcx,[rbp+10h]
  000000000000040E: 48 8D 34 0B        lea         rsi,[rbx+rcx]
  0000000000000412: B8 96 03 00 00     mov         eax,396h
  0000000000000417: 89 06              mov         dword ptr [rsi],eax
  0000000000000419: 8B 75 08           mov         esi,dword ptr [rbp+8]
  000000000000041C: 8B CE              mov         ecx,esi
  000000000000041E: E8 00 00 00 00     call        RtmInitRand
  0000000000000423: 48 8D 75 28        lea         rsi,[rbp+28h]
  0000000000000427: 48 8B CE           mov         rcx,rsi
  000000000000042A: E8 00 00 00 00     call        destructor_TraceGuard_82262E3D79E486D306C249AA83E2FB687C3A84E2
  000000000000042F: EB 00              jmp         0000000000000431
  0000000000000431: 48 8D 65 30        lea         rsp,[rbp+30h]
  0000000000000435: 5B                 pop         rbx
  0000000000000436: 5B                 pop         rbx
  0000000000000437: 5F                 pop         rdi
  0000000000000438: 5E                 pop         rsi
  0000000000000439: 5D                 pop         rbp
  000000000000043A: C3                 ret
function_Random_31E0CB21F4674F2FECDAD96F3F7C63A9826DD4E6:
  000000000000043B: 55                 push        rbp
  000000000000043C: 56                 push        rsi
  000000000000043D: 57                 push        rdi
  000000000000043E: 53                 push        rbx
  000000000000043F: 53                 push        rbx
  0000000000000440: 48 83 EC 50        sub         rsp,50h
  0000000000000444: 48 8D 6C 24 20     lea         rbp,[rsp+20h]
  0000000000000449: 48 B8 D4 00 00 00  mov         rax,5B0619DB000000D4h
                    DB 19 06 5B
  0000000000000453: 48 8B D0           mov         rdx,rax
  0000000000000456: 48 8D 7D 08        lea         rdi,[rbp+8]
  000000000000045A: 48 8B CF           mov         rcx,rdi
  000000000000045D: E8 00 00 00 00     call        constructor_TraceEntry_26E1695E71A0E35C2150DA4E6BD1B4A55011008F
  0000000000000462: 48 8D 75 08        lea         rsi,[rbp+8]
  0000000000000466: 48 8B D6           mov         rdx,rsi
  0000000000000469: 48 8D 7D 20        lea         rdi,[rbp+20h]
  000000000000046D: 48 8B CF           mov         rcx,rdi
  0000000000000470: E8 00 00 00 00     call        constructor_TraceGuard_BA2365F880229A4A3C2607337F6B3917C2419B9F
  0000000000000475: 48 C7 C3 10 00 00  mov         rbx,10h
                    00
  000000000000047C: 48 8D 4D 08        lea         rcx,[rbp+8]
  0000000000000480: 48 8D 34 0B        lea         rsi,[rbx+rcx]
  0000000000000484: B8 9A 03 00 00     mov         eax,39Ah
  0000000000000489: 89 06              mov         dword ptr [rsi],eax
  000000000000048B: 48 C7 C3 10 00 00  mov         rbx,10h
                    00
  0000000000000492: 48 8D 4D 08        lea         rcx,[rbp+8]
  0000000000000496: 48 8D 34 0B        lea         rsi,[rbx+rcx]
  000000000000049A: B8 9B 03 00 00     mov         eax,39Bh
  000000000000049F: 89 06              mov         dword ptr [rsi],eax
  00000000000004A1: E8 00 00 00 00     call        RtmRandom
  00000000000004A6: 48 8B F0           mov         rsi,rax
  00000000000004A9: EB 00              jmp         00000000000004AB
  00000000000004AB: 48 8D 7D 20        lea         rdi,[rbp+20h]
  00000000000004AF: 48 8B CF           mov         rcx,rdi
  00000000000004B2: E8 00 00 00 00     call        destructor_TraceGuard_82262E3D79E486D306C249AA83E2FB687C3A84E2
  00000000000004B7: 8B C6              mov         eax,esi
  00000000000004B9: EB 15              jmp         00000000000004D0
  00000000000004BB: 48 8D 75 20        lea         rsi,[rbp+20h]
  00000000000004BF: 48 8B CE           mov         rcx,rsi
  00000000000004C2: E8 00 00 00 00     call        destructor_TraceGuard_82262E3D79E486D306C249AA83E2FB687C3A84E2
  00000000000004C7: BB 00 00 00 00     mov         ebx,0
  00000000000004CC: 8B C3              mov         eax,ebx
  00000000000004CE: EB 00              jmp         00000000000004D0
  00000000000004D0: 48 8D 65 30        lea         rsp,[rbp+30h]
  00000000000004D4: 5B                 pop         rbx
  00000000000004D5: 5B                 pop         rbx
  00000000000004D6: 5F                 pop         rdi
  00000000000004D7: 5E                 pop         rsi
  00000000000004D8: 5D                 pop         rbp
  00000000000004D9: C3                 ret
function_Random64_86248DB382284E2ADC9E74F1EC302BC98AAF5D05:
  00000000000004DA: 55                 push        rbp
  00000000000004DB: 56                 push        rsi
  00000000000004DC: 57                 push        rdi
  00000000000004DD: 53                 push        rbx
  00000000000004DE: 53                 push        rbx
  00000000000004DF: 48 83 EC 50        sub         rsp,50h
  00000000000004E3: 48 8D 6C 24 20     lea         rbp,[rsp+20h]
  00000000000004E8: 48 B8 D5 00 00 00  mov         rax,5B0619DB000000D5h
                    DB 19 06 5B
  00000000000004F2: 48 8B D0           mov         rdx,rax
  00000000000004F5: 48 8D 7D 08        lea         rdi,[rbp+8]
  00000000000004F9: 48 8B CF           mov         rcx,rdi
  00000000000004FC: E8 00 00 00 00     call        constructor_TraceEntry_26E1695E71A0E35C2150DA4E6BD1B4A55011008F
  0000000000000501: 48 8D 75 08        lea         rsi,[rbp+8]
  0000000000000505: 48 8B D6           mov         rdx,rsi
  0000000000000508: 48 8D 7D 20        lea         rdi,[rbp+20h]
  000000000000050C: 48 8B CF           mov         rcx,rdi
  000000000000050F: E8 00 00 00 00     call        constructor_TraceGuard_BA2365F880229A4A3C2607337F6B3917C2419B9F
  0000000000000514: 48 C7 C3 10 00 00  mov         rbx,10h
                    00
  000000000000051B: 48 8D 4D 08        lea         rcx,[rbp+8]
  000000000000051F: 48 8D 34 0B        lea         rsi,[rbx+rcx]
  0000000000000523: B8 9F 03 00 00     mov         eax,39Fh
  0000000000000528: 89 06              mov         dword ptr [rsi],eax
  000000000000052A: 48 C7 C3 10 00 00  mov         rbx,10h
                    00
  0000000000000531: 48 8D 4D 08        lea         rcx,[rbp+8]
  0000000000000535: 48 8D 34 0B        lea         rsi,[rbx+rcx]
  0000000000000539: B8 A0 03 00 00     mov         eax,3A0h
  000000000000053E: 89 06              mov         dword ptr [rsi],eax
  0000000000000540: E8 00 00 00 00     call        RtmRandom64
  0000000000000545: 48 8B F0           mov         rsi,rax
  0000000000000548: EB 00              jmp         000000000000054A
  000000000000054A: 48 8D 7D 20        lea         rdi,[rbp+20h]
  000000000000054E: 48 8B CF           mov         rcx,rdi
  0000000000000551: E8 00 00 00 00     call        destructor_TraceGuard_82262E3D79E486D306C249AA83E2FB687C3A84E2
  0000000000000556: 48 8B C6           mov         rax,rsi
  0000000000000559: EB 18              jmp         0000000000000573
  000000000000055B: 48 8D 75 20        lea         rsi,[rbp+20h]
  000000000000055F: 48 8B CE           mov         rcx,rsi
  0000000000000562: E8 00 00 00 00     call        destructor_TraceGuard_82262E3D79E486D306C249AA83E2FB687C3A84E2
  0000000000000567: 48 C7 C3 00 00 00  mov         rbx,0
                    00
  000000000000056E: 48 8B C3           mov         rax,rbx
  0000000000000571: EB 00              jmp         0000000000000573
  0000000000000573: 48 8D 65 30        lea         rsp,[rbp+30h]
  0000000000000577: 5B                 pop         rbx
  0000000000000578: 5B                 pop         rbx
  0000000000000579: 5F                 pop         rdi
  000000000000057A: 5E                 pop         rsi
  000000000000057B: 5D                 pop         rbp
  000000000000057C: C3                 ret
function_RandomNumber_9B18159AB1630BE2229DFB5AC53B335D183B2263:
  000000000000057D: 55                 push        rbp
  000000000000057E: 56                 push        rsi
  000000000000057F: 57                 push        rdi
  0000000000000580: 41 54              push        r12
  0000000000000582: 53                 push        rbx
  0000000000000583: 48 83 EC 50        sub         rsp,50h
  0000000000000587: 48 8D 6C 24 20     lea         rbp,[rsp+20h]
  000000000000058C: 8B F1              mov         esi,ecx
  000000000000058E: 89 75 08           mov         dword ptr [rbp+8],esi
  0000000000000591: 48 B8 D6 00 00 00  mov         rax,5B0619DB000000D6h
                    DB 19 06 5B
  000000000000059B: 48 8B D0           mov         rdx,rax
  000000000000059E: 48 8D 7D 10        lea         rdi,[rbp+10h]
  00000000000005A2: 48 8B CF           mov         rcx,rdi
  00000000000005A5: E8 00 00 00 00     call        constructor_TraceEntry_26E1695E71A0E35C2150DA4E6BD1B4A55011008F
  00000000000005AA: 48 8D 75 10        lea         rsi,[rbp+10h]
  00000000000005AE: 48 8B D6           mov         rdx,rsi
  00000000000005B1: 48 8D 7D 28        lea         rdi,[rbp+28h]
  00000000000005B5: 48 8B CF           mov         rcx,rdi
  00000000000005B8: E8 00 00 00 00     call        constructor_TraceGuard_BA2365F880229A4A3C2607337F6B3917C2419B9F
  00000000000005BD: 48 C7 C3 10 00 00  mov         rbx,10h
                    00
  00000000000005C4: 48 8D 4D 10        lea         rcx,[rbp+10h]
  00000000000005C8: 48 8D 34 0B        lea         rsi,[rbx+rcx]
  00000000000005CC: B8 A4 03 00 00     mov         eax,3A4h
  00000000000005D1: 89 06              mov         dword ptr [rsi],eax
  00000000000005D3: 48 C7 C3 10 00 00  mov         rbx,10h
                    00
  00000000000005DA: 48 8D 4D 10        lea         rcx,[rbp+10h]
  00000000000005DE: 48 8D 34 0B        lea         rsi,[rbx+rcx]
  00000000000005E2: B8 A5 03 00 00     mov         eax,3A5h
  00000000000005E7: 89 06              mov         dword ptr [rsi],eax
  00000000000005E9: E8 4D FE FF FF     call        function_Random_31E0CB21F4674F2FECDAD96F3F7C63A9826DD4E6
  00000000000005EE: 48 8B F0           mov         rsi,rax
  00000000000005F1: 8B 7D 08           mov         edi,dword ptr [rbp+8]
  00000000000005F4: 33 D2              xor         edx,edx
  00000000000005F6: 8B C6              mov         eax,esi
  00000000000005F8: F7 F7              div         eax,edi
  00000000000005FA: 44 8B E2           mov         r12d,edx
  00000000000005FD: EB 00              jmp         00000000000005FF
  00000000000005FF: 48 8D 75 28        lea         rsi,[rbp+28h]
  0000000000000603: 48 8B CE           mov         rcx,rsi
  0000000000000606: E8 00 00 00 00     call        destructor_TraceGuard_82262E3D79E486D306C249AA83E2FB687C3A84E2
  000000000000060B: 41 8B C4           mov         eax,r12d
  000000000000060E: EB 15              jmp         0000000000000625
  0000000000000610: 48 8D 75 28        lea         rsi,[rbp+28h]
  0000000000000614: 48 8B CE           mov         rcx,rsi
  0000000000000617: E8 00 00 00 00     call        destructor_TraceGuard_82262E3D79E486D306C249AA83E2FB687C3A84E2
  000000000000061C: BB 00 00 00 00     mov         ebx,0
  0000000000000621: 8B C3              mov         eax,ebx
  0000000000000623: EB 00              jmp         0000000000000625
  0000000000000625: 48 8D 65 30        lea         rsp,[rbp+30h]
  0000000000000629: 5B                 pop         rbx
  000000000000062A: 41 5C              pop         r12
  000000000000062C: 5F                 pop         rdi
  000000000000062D: 5E                 pop         rsi
  000000000000062E: 5D                 pop         rbp
  000000000000062F: C3                 ret

RAW DATA #1
  00000000: 55 56 57 41 54 41 55 53 53 48 83 EC 60 48 8D 6C  UVWATAUSSH.ì`H.l
  00000010: 24 20 48 8B F1 48 89 75 08 48 B8 D1 00 00 00 DB  $ H.ñH.u.H¸Ñ...Û
  00000020: 19 06 5B 48 8B D0 48 8D 7D 18 48 8B CF E8 00 00  ..[H.ÐH.}.H.Ïè..
  00000030: 00 00 48 8D 75 18 48 8B D6 48 8D 7D 30 48 8B CF  ..H.u.H.ÖH.}0H.Ï
  00000040: E8 00 00 00 00 48 C7 C3 10 00 00 00 48 8D 4D 18  è....HÇÃ....H.M.
  00000050: 48 8D 34 0B B8 C5 01 00 00 89 06 48 C7 C3 10 00  H.4.¸Å.....HÇÃ..
  00000060: 00 00 48 8D 4D 18 48 8D 34 0B B8 C6 01 00 00 89  ..H.M.H.4.¸Æ....
  00000070: 06 B0 00 48 0F BE F0 48 89 75 10 48 C7 C3 10 00  .°.H.¾ðH.u.HÇÃ..
  00000080: 00 00 48 8D 4D 18 48 8D 34 0B B8 C7 01 00 00 89  ..H.M.H.4.¸Ç....
  00000090: 06 E9 8F 00 00 00 48 C7 C3 10 00 00 00 48 8D 4D  .é....HÇÃ....H.M
  000000A0: 18 48 8D 34 0B B8 C8 01 00 00 89 06 48 C7 C3 10  .H.4.¸È.....HÇÃ.
  000000B0: 00 00 00 48 8D 4D 18 48 8D 34 0B B8 C9 01 00 00  ...H.M.H.4.¸É...
  000000C0: 89 06 48 8B 75 08 B0 01 48 0F BE F8 40 8A CF 48  ..H.u.°.H.¾ø@.ÏH
  000000D0: D3 FE 4C 8B E6 4C 89 65 08 48 C7 C3 10 00 00 00  ÓþL.æL.e.HÇÃ....
  000000E0: 48 8D 4D 18 48 8D 34 0B B8 CA 01 00 00 89 06 48  H.M.H.4.¸Ê.....H
  000000F0: 8B 75 10 B0 01 48 0F BE F8 48 03 F7 4C 8B E6 4C  .u.°.H.¾øH.÷L.æL
  00000100: 89 65 10 48 8B 75 10 EB 1C 48 C7 C3 10 00 00 00  .e.H.u.ë.HÇÃ....
  00000110: 48 8D 4D 18 48 8D 34 0B B8 CC 01 00 00 89 06 48  H.M.H.4.¸Ì.....H
  00000120: 8B 75 10 EB 1C B0 01 48 0F BE F8 4C 8B 65 08 49  .u.ë.°.H.¾øL.e.I
  00000130: 3B FC 41 0F 9C C5 45 0A ED 0F 85 57 FF FF FF EB  ;üA..ÅE.í..Wÿÿÿë
  00000140: C8 48 8D 7D 30 48 8B CF E8 00 00 00 00 48 8B C6  ÈH.}0H.Ïè....H.Æ
  00000150: EB 18 48 8D 75 30 48 8B CE E8 00 00 00 00 48 C7  ë.H.u0H.Îè....HÇ
  00000160: C3 00 00 00 00 48 8B C3 EB 00 48 8D 65 40 5B 5B  Ã....H.Ãë.H.e@[[
  00000170: 41 5D 41 5C 5F 5E 5D C3 55 56 57 41 54 53 48 83  A]A\_^]ÃUVWATSH.
  00000180: EC 70 48 8D 6C 24 20 48 8B F1 48 8B FA 48 89 75  ìpH.l$ H.ñH.úH.u
  00000190: 08 48 89 7D 10 48 B8 D2 00 00 00 DB 19 06 5B 48  .H.}.H¸Ò...Û..[H
  000001A0: 8B D0 48 8D 7D 28 48 8B CF E8 00 00 00 00 48 8D  .ÐH.}(H.Ïè....H.
  000001B0: 75 28 48 8B D6 48 8D 7D 40 48 8B CF E8 00 00 00  u(H.ÖH.}@H.Ïè...
  000001C0: 00 48 C7 C3 10 00 00 00 48 8D 4D 28 48 8D 34 0B  .HÇÃ....H.M(H.4.
  000001D0: B8 D0 01 00 00 89 06 48 C7 C3 10 00 00 00 48 8D  ¸Ð.....HÇÃ....H.
  000001E0: 4D 28 48 8D 34 0B B8 D1 01 00 00 89 06 B0 02 48  M(H.4.¸Ñ.....°.H
  000001F0: 0F B6 F0 48 89 75 18 48 C7 C3 10 00 00 00 48 8D  .¶ðH.u.HÇÃ....H.
  00000200: 4D 28 48 8D 34 0B B8 D2 01 00 00 89 06 B0 01 0F  M(H.4.¸Ò.....°..
  00000210: BE F0 48 8B 7D 10 89 37 48 C7 C3 10 00 00 00 48  ¾ðH.}..7HÇÃ....H
  00000220: 8D 4D 28 48 8D 34 0B B8 D3 01 00 00 89 06 E9 A5  .M(H.4.¸Ó.....é¥
  00000230: 00 00 00 48 C7 C3 10 00 00 00 48 8D 4D 28 48 8D  ...HÇÃ....H.M(H.
  00000240: 34 0B B8 D4 01 00 00 89 06 48 C7 C3 10 00 00 00  4.¸Ô.....HÇÃ....
  00000250: 48 8D 4D 28 48 8D 34 0B B8 D5 01 00 00 89 06 48  H.M(H.4.¸Õ.....H
  00000260: 8B 75 18 B0 01 48 0F B6 F8 40 8A CF 48 D3 E6 4C  .u.°.H.¶ø@.ÏHÓæL
  00000270: 8B E6 4C 89 65 18 48 C7 C3 10 00 00 00 48 8D 4D  .æL.e.HÇÃ....H.M
  00000280: 28 48 8D 34 0B B8 D6 01 00 00 89 06 48 8B 75 10  (H.4.¸Ö.....H.u.
  00000290: 8B 3E B0 01 0F BE F0 03 FE 44 8B E7 48 8B 75 10  .>°..¾ð.þD.çH.u.
  000002A0: 44 89 26 48 8B 75 10 EB 2F 48 C7 C3 10 00 00 00  D.&H.u.ë/HÇÃ....
  000002B0: 48 8D 4D 28 48 8D 34 0B B8 D8 01 00 00 89 06 48  H.M(H.4.¸Ø.....H
  000002C0: 8B 75 08 48 8B 7D 18 48 3B F7 41 0F 94 C4 45 0A  .u.H.}.H;÷A..ÄE.
  000002D0: E4 75 3E E9 89 00 00 00 48 8B 75 18 B0 00 48 0F  äu>é....H.u.°.H.
  000002E0: B6 F8 48 3B F7 41 0F 94 C4 41 8A F4 40 80 F6 01  ¶øH;÷A..ÄA.ô@.ö.
  000002F0: 40 0A F6 75 02 EB B2 48 8B 75 18 48 8B 7D 08 48  @.öu.ë²H.u.H.}.H
  00000300: 3B F7 41 0F 92 C4 45 0A E4 0F 85 24 FF FF FF EB  ;÷A..ÄE.ä..$ÿÿÿë
  00000310: 98 48 C7 C3 10 00 00 00 48 8D 4D 28 48 8D 34 0B  .HÇÃ....H.M(H.4.
  00000320: B8 D9 01 00 00 89 06 48 C7 C3 10 00 00 00 48 8D  ¸Ù.....HÇÃ....H.
  00000330: 4D 28 48 8D 34 0B B8 DA 01 00 00 89 06 48 8D 75  M(H.4.¸Ú.....H.u
  00000340: 40 48 8B CE E8 00 00 00 00 B3 01 8A C3 EB 54 48  @H.Îè....³..ÃëTH
  00000350: 8D 75 40 48 8B CE E8 00 00 00 00 B3 00 8A C3 EB  .u@H.Îè....³..Ãë
  00000360: 42 48 C7 C3 10 00 00 00 48 8D 4D 28 48 8D 34 0B  BHÇÃ....H.M(H.4.
  00000370: B8 DD 01 00 00 89 06 48 C7 C3 10 00 00 00 48 8D  ¸Ý.....HÇÃ....H.
  00000380: 4D 28 48 8D 34 0B B8 DE 01 00 00 89 06 48 8D 75  M(H.4.¸Þ.....H.u
  00000390: 40 48 8B CE E8 00 00 00 00 B3 00 8A C3 EB 04 EB  @H.Îè....³..Ãë.ë
  000003A0: AE EB AC 48 8D 65 50 5B 41 5C 5F 5E 5D C3 55 56  ®ë¬H.eP[A\_^]ÃUV
  000003B0: 57 53 53 48 83 EC 50 48 8D 6C 24 20 8B F1 89 75  WSSH.ìPH.l$ .ñ.u
  000003C0: 08 48 B8 D3 00 00 00 DB 19 06 5B 48 8B D0 48 8D  .H¸Ó...Û..[H.ÐH.
  000003D0: 7D 10 48 8B CF E8 00 00 00 00 48 8D 75 10 48 8B  }.H.Ïè....H.u.H.
  000003E0: D6 48 8D 7D 28 48 8B CF E8 00 00 00 00 48 C7 C3  ÖH.}(H.Ïè....HÇÃ
  000003F0: 10 00 00 00 48 8D 4D 10 48 8D 34 0B B8 95 03 00  ....H.M.H.4.¸...
  00000400: 00 89 06 48 C7 C3 10 00 00 00 48 8D 4D 10 48 8D  ...HÇÃ....H.M.H.
  00000410: 34 0B B8 96 03 00 00 89 06 8B 75 08 8B CE E8 00  4.¸.......u..Îè.
  00000420: 00 00 00 48 8D 75 28 48 8B CE E8 00 00 00 00 EB  ...H.u(H.Îè....ë
  00000430: 00 48 8D 65 30 5B 5B 5F 5E 5D C3 55 56 57 53 53  .H.e0[[_^]ÃUVWSS
  00000440: 48 83 EC 50 48 8D 6C 24 20 48 B8 D4 00 00 00 DB  H.ìPH.l$ H¸Ô...Û
  00000450: 19 06 5B 48 8B D0 48 8D 7D 08 48 8B CF E8 00 00  ..[H.ÐH.}.H.Ïè..
  00000460: 00 00 48 8D 75 08 48 8B D6 48 8D 7D 20 48 8B CF  ..H.u.H.ÖH.} H.Ï
  00000470: E8 00 00 00 00 48 C7 C3 10 00 00 00 48 8D 4D 08  è....HÇÃ....H.M.
  00000480: 48 8D 34 0B B8 9A 03 00 00 89 06 48 C7 C3 10 00  H.4.¸......HÇÃ..
  00000490: 00 00 48 8D 4D 08 48 8D 34 0B B8 9B 03 00 00 89  ..H.M.H.4.¸.....
  000004A0: 06 E8 00 00 00 00 48 8B F0 EB 00 48 8D 7D 20 48  .è....H.ðë.H.} H
  000004B0: 8B CF E8 00 00 00 00 8B C6 EB 15 48 8D 75 20 48  .Ïè.....Æë.H.u H
  000004C0: 8B CE E8 00 00 00 00 BB 00 00 00 00 8B C3 EB 00  .Îè....».....Ãë.
  000004D0: 48 8D 65 30 5B 5B 5F 5E 5D C3 55 56 57 53 53 48  H.e0[[_^]ÃUVWSSH
  000004E0: 83 EC 50 48 8D 6C 24 20 48 B8 D5 00 00 00 DB 19  .ìPH.l$ H¸Õ...Û.
  000004F0: 06 5B 48 8B D0 48 8D 7D 08 48 8B CF E8 00 00 00  .[H.ÐH.}.H.Ïè...
  00000500: 00 48 8D 75 08 48 8B D6 48 8D 7D 20 48 8B CF E8  .H.u.H.ÖH.} H.Ïè
  00000510: 00 00 00 00 48 C7 C3 10 00 00 00 48 8D 4D 08 48  ....HÇÃ....H.M.H
  00000520: 8D 34 0B B8 9F 03 00 00 89 06 48 C7 C3 10 00 00  .4.¸......HÇÃ...
  00000530: 00 48 8D 4D 08 48 8D 34 0B B8 A0 03 00 00 89 06  .H.M.H.4.¸......
  00000540: E8 00 00 00 00 48 8B F0 EB 00 48 8D 7D 20 48 8B  è....H.ðë.H.} H.
  00000550: CF E8 00 00 00 00 48 8B C6 EB 18 48 8D 75 20 48  Ïè....H.Æë.H.u H
  00000560: 8B CE E8 00 00 00 00 48 C7 C3 00 00 00 00 48 8B  .Îè....HÇÃ....H.
  00000570: C3 EB 00 48 8D 65 30 5B 5B 5F 5E 5D C3 55 56 57  Ãë.H.e0[[_^]ÃUVW
  00000580: 41 54 53 48 83 EC 50 48 8D 6C 24 20 8B F1 89 75  ATSH.ìPH.l$ .ñ.u
  00000590: 08 48 B8 D6 00 00 00 DB 19 06 5B 48 8B D0 48 8D  .H¸Ö...Û..[H.ÐH.
  000005A0: 7D 10 48 8B CF E8 00 00 00 00 48 8D 75 10 48 8B  }.H.Ïè....H.u.H.
  000005B0: D6 48 8D 7D 28 48 8B CF E8 00 00 00 00 48 C7 C3  ÖH.}(H.Ïè....HÇÃ
  000005C0: 10 00 00 00 48 8D 4D 10 48 8D 34 0B B8 A4 03 00  ....H.M.H.4.¸¤..
  000005D0: 00 89 06 48 C7 C3 10 00 00 00 48 8D 4D 10 48 8D  ...HÇÃ....H.M.H.
  000005E0: 34 0B B8 A5 03 00 00 89 06 E8 4D FE FF FF 48 8B  4.¸¥.....èMþÿÿH.
  000005F0: F0 8B 7D 08 33 D2 8B C6 F7 F7 44 8B E2 EB 00 48  ð.}.3Ò.Æ÷÷D.âë.H
  00000600: 8D 75 28 48 8B CE E8 00 00 00 00 41 8B C4 EB 15  .u(H.Îè....A.Äë.
  00000610: 48 8D 75 28 48 8B CE E8 00 00 00 00 BB 00 00 00  H.u(H.Îè....»...
  00000620: 00 8B C3 EB 00 48 8D 65 30 5B 41 5C 5F 5E 5D C3  ..Ãë.H.e0[A\_^]Ã

RELOCATIONS #1
                                                Symbol    Symbol
 Offset    Type              Applied To         Index     Name
 --------  ----------------  -----------------  --------  ------
 0000002E  REL32                      00000000         8  constructor_TraceEntry_26E1695E71A0E35C2150DA4E6BD1B4A55011008F
 00000041  REL32                      00000000         9  constructor_TraceGuard_BA2365F880229A4A3C2607337F6B3917C2419B9F
 00000149  REL32                      00000000         A  destructor_TraceGuard_82262E3D79E486D306C249AA83E2FB687C3A84E2
 0000015A  REL32                      00000000         A  destructor_TraceGuard_82262E3D79E486D306C249AA83E2FB687C3A84E2
 000001AA  REL32                      00000000         8  constructor_TraceEntry_26E1695E71A0E35C2150DA4E6BD1B4A55011008F
 000001BD  REL32                      00000000         9  constructor_TraceGuard_BA2365F880229A4A3C2607337F6B3917C2419B9F
 00000345  REL32                      00000000         A  destructor_TraceGuard_82262E3D79E486D306C249AA83E2FB687C3A84E2
 00000357  REL32                      00000000         A  destructor_TraceGuard_82262E3D79E486D306C249AA83E2FB687C3A84E2
 00000395  REL32                      00000000         A  destructor_TraceGuard_82262E3D79E486D306C249AA83E2FB687C3A84E2
 000003D6  REL32                      00000000         8  constructor_TraceEntry_26E1695E71A0E35C2150DA4E6BD1B4A55011008F
 000003E9  REL32                      00000000         9  constructor_TraceGuard_BA2365F880229A4A3C2607337F6B3917C2419B9F
 0000041F  REL32                      00000000         B  RtmInitRand
 0000042B  REL32                      00000000         A  destructor_TraceGuard_82262E3D79E486D306C249AA83E2FB687C3A84E2
 0000045E  REL32                      00000000         8  constructor_TraceEntry_26E1695E71A0E35C2150DA4E6BD1B4A55011008F
 00000471  REL32                      00000000         9  constructor_TraceGuard_BA2365F880229A4A3C2607337F6B3917C2419B9F
 000004A2  REL32                      00000000         C  RtmRandom
 000004B3  REL32                      00000000         A  destructor_TraceGuard_82262E3D79E486D306C249AA83E2FB687C3A84E2
 000004C3  REL32                      00000000         A  destructor_TraceGuard_82262E3D79E486D306C249AA83E2FB687C3A84E2
 000004FD  REL32                      00000000         8  constructor_TraceEntry_26E1695E71A0E35C2150DA4E6BD1B4A55011008F
 00000510  REL32                      00000000         9  constructor_TraceGuard_BA2365F880229A4A3C2607337F6B3917C2419B9F
 00000541  REL32                      00000000         D  RtmRandom64
 00000552  REL32                      00000000         A  destructor_TraceGuard_82262E3D79E486D306C249AA83E2FB687C3A84E2
 00000563  REL32                      00000000         A  destructor_TraceGuard_82262E3D79E486D306C249AA83E2FB687C3A84E2
 000005A6  REL32                      00000000         8  constructor_TraceEntry_26E1695E71A0E35C2150DA4E6BD1B4A55011008F
 000005B9  REL32                      00000000         9  constructor_TraceGuard_BA2365F880229A4A3C2607337F6B3917C2419B9F
 00000607  REL32                      00000000         A  destructor_TraceGuard_82262E3D79E486D306C249AA83E2FB687C3A84E2
 00000618  REL32                      00000000         A  destructor_TraceGuard_82262E3D79E486D306C249AA83E2FB687C3A84E2

SECTION HEADER #2
   .data name
       0 physical address
       0 virtual address
       0 size of raw data
       0 file pointer to raw data
       0 file pointer to relocation table
       0 file pointer to line numbers
       0 number of relocations
       0 number of line numbers
C0500040 flags
         Initialized Data
         16 byte align
         Read Write

SECTION HEADER #3
.debug$S name
       0 physical address
       0 virtual address
      94 size of raw data
     7CA file pointer to raw data (000007CA to 0000085D)
       0 file pointer to relocation table
       0 file pointer to line numbers
       0 number of relocations
       0 number of line numbers
42100040 flags
         Initialized Data
         Discardable
         1 byte align
         Read Only

RAW DATA #3
  00000000: 04 00 00 00 F1 00 00 00 88 00 00 00 4D 00 01 11  ....ñ.......M...
  00000010: 00 00 00 00 44 3A 5C 77 6F 72 6B 5C 63 6D 61 6A  ....D:\work\cmaj
  00000020: 6F 72 2D 6D 6F 64 5C 63 6D 61 6A 6F 72 5C 73 62  or-mod\cmajor\sb
  00000030: 69 6E 5C 6D 61 6B 65 5F 63 6F 6D 70 61 72 65 5F  in\make_compare_
  00000040: 70 72 6F 6A 65 63 74 5C 41 6C 67 6F 72 69 74 68  project\Algorith
  00000050: 6D 2E 6D 61 73 6D 2E 6F 62 6A 00 37 00 3C 11 03  m.masm.obj.7.<..
  00000060: 02 00 00 D0 00 00 00 00 00 00 00 00 00 0E 00 2B  ...Ð...........+
  00000070: 00 F8 87 00 00 4D 69 63 72 6F 73 6F 66 74 20 28  .ø...Microsoft (
  00000080: 52 29 20 4D 61 63 72 6F 20 41 73 73 65 6D 62 6C  R) Macro Assembl
  00000090: 65 72 00 00                                      er..

COFF SYMBOL TABLE
000 010387F8 ABS    notype       Static       | @comp.id
001 00000010 ABS    notype       Static       | @feat.00
002 00000000 SECT1  notype       Static       | .text$mn
    Section length  630, #relocs   1B, #linenums    0, checksum        0
004 00000000 SECT2  notype       Static       | .data
    Section length    0, #relocs    0, #linenums    0, checksum        0
006 00000000 SECT3  notype       Static       | .debug$S
    Section length   94, #relocs    0, #linenums    0, checksum        0
008 00000000 UNDEF  notype       External     | constructor_TraceEntry_26E1695E71A0E35C2150DA4E6BD1B4A55011008F
009 00000000 UNDEF  notype       External     | constructor_TraceGuard_BA2365F880229A4A3C2607337F6B3917C2419B9F
00A 00000000 UNDEF  notype       External     | destructor_TraceGuard_82262E3D79E486D306C249AA83E2FB687C3A84E2
00B 00000000 UNDEF  notype       External     | RtmInitRand
00C 00000000 UNDEF  notype       External     | RtmRandom
00D 00000000 UNDEF  notype       External     | RtmRandom64
00E 00000000 SECT1  notype ()    External     | function_Log2_9B4AE8B4638666D35C324AC1AFA2D08DC9467449
00F 00000178 SECT1  notype ()    External     | function_IsPowerOfTwo_D892CEDBDF4E89299E5E8AD450CA0A4A01FD5D22
010 000003AE SECT1  notype ()    External     | function_InitRand_DBB03E4F58D19E4E95CCAE2AA81C163C12C8618F
011 0000043B SECT1  notype ()    External     | function_Random_31E0CB21F4674F2FECDAD96F3F7C63A9826DD4E6
012 000004DA SECT1  notype ()    External     | function_Random64_86248DB382284E2ADC9E74F1EC302BC98AAF5D05
013 0000057D SECT1  notype ()    External     | function_RandomNumber_9B18159AB1630BE2229DFB5AC53B335D183B2263

String Table Size = 0x249 bytes

  Summary

           0 .data
          94 .debug$S
         630 .text$mn
