
Dump of file AsciiChar.masm.obj

File Type: COFF OBJECT

FILE HEADER VALUES
            8664 machine (x64)
               3 number of sections
        67C5E727 time date stamp Mon Mar  3 19:30:15 2025
             F04 file pointer to symbol table
              1C number of symbols
               0 size of optional header
               0 characteristics

SECTION HEADER #1
.text$mn name
       0 physical address
       0 virtual address
     AEB size of raw data
      8C file pointer to raw data (0000008C to 00000B76)
     B78 file pointer to relocation table
       0 file pointer to line numbers
      4C number of relocations
       0 number of line numbers
60500020 flags
         Code
         16 byte align
         Execute Read

function_IsLower_D871AEE2B278BF1639BE27261FF1E453CE1D5D57:
  0000000000000000: 55                 push        rbp
  0000000000000001: 56                 push        rsi
  0000000000000002: 57                 push        rdi
  0000000000000003: 41 54              push        r12
  0000000000000005: 41 55              push        r13
  0000000000000007: 53                 push        rbx
  0000000000000008: 53                 push        rbx
  0000000000000009: 48 83 EC 50        sub         rsp,50h
  000000000000000D: 48 8D 6C 24 20     lea         rbp,[rsp+20h]
  0000000000000012: 40 8A F1           mov         sil,cl
  0000000000000015: 40 88 75 08        mov         byte ptr [rbp+8],sil
  0000000000000019: 48 B8 FD 00 00 00  mov         rax,5B0619DB000000FDh
                    DB 19 06 5B
  0000000000000023: 48 8B D0           mov         rdx,rax
  0000000000000026: 48 8D 7D 10        lea         rdi,[rbp+10h]
  000000000000002A: 48 8B CF           mov         rcx,rdi
  000000000000002D: E8 00 00 00 00     call        constructor_TraceEntry_26E1695E71A0E35C2150DA4E6BD1B4A55011008F
  0000000000000032: 48 8D 75 10        lea         rsi,[rbp+10h]
  0000000000000036: 48 8B D6           mov         rdx,rsi
  0000000000000039: 48 8D 7D 28        lea         rdi,[rbp+28h]
  000000000000003D: 48 8B CF           mov         rcx,rdi
  0000000000000040: E8 00 00 00 00     call        constructor_TraceGuard_BA2365F880229A4A3C2607337F6B3917C2419B9F
  0000000000000045: 48 C7 C3 10 00 00  mov         rbx,10h
                    00
  000000000000004C: 48 8D 4D 10        lea         rcx,[rbp+10h]
  0000000000000050: 48 8D 34 0B        lea         rsi,[rbx+rcx]
  0000000000000054: B8 0B 00 00 00     mov         eax,0Bh
  0000000000000059: 89 06              mov         dword ptr [rsi],eax
  000000000000005B: 48 C7 C3 10 00 00  mov         rbx,10h
                    00
  0000000000000062: 48 8D 4D 10        lea         rcx,[rbp+10h]
  0000000000000066: 48 8D 34 0B        lea         rsi,[rbx+rcx]
  000000000000006A: B8 0C 00 00 00     mov         eax,0Ch
  000000000000006F: 89 06              mov         dword ptr [rsi],eax
  0000000000000071: E8 00 00 00 00     call        member_function_Instance_CharClassTable_6970C3056FDEEFAD632316A08C443335D3B0B423
  0000000000000076: 48 8B F0           mov         rsi,rax
  0000000000000079: 40 8A 7D 08        mov         dil,byte ptr [rbp+8]
  000000000000007D: 40 8A D7           mov         dl,dil
  0000000000000080: 48 8B CE           mov         rcx,rsi
  0000000000000083: E8 00 00 00 00     call        member_function_GetCharacterClass_CharClassTable_54E7EF121ECEA2E82345B3CA1A4A75207B96D79A
  0000000000000088: 4C 8B E0           mov         r12,rax
  000000000000008B: 66 BB 01 00        mov         bx,1
  000000000000008F: 66 44 23 E3        and         r12w,bx
  0000000000000093: 66 41 8B F4        mov         si,r12w
  0000000000000097: 0F B7 FE           movzx       edi,si
  000000000000009A: B0 00              mov         al,0
  000000000000009C: 0F BE F0           movsx       esi,al
  000000000000009F: 3B FE              cmp         edi,esi
  00000000000000A1: 41 0F 94 C4        sete        r12b
  00000000000000A5: 41 8A F4           mov         sil,r12b
  00000000000000A8: 40 80 F6 01        xor         sil,1
  00000000000000AC: EB 00              jmp         00000000000000AE
  00000000000000AE: 48 8D 7D 28        lea         rdi,[rbp+28h]
  00000000000000B2: 48 8B CF           mov         rcx,rdi
  00000000000000B5: E8 00 00 00 00     call        destructor_TraceGuard_82262E3D79E486D306C249AA83E2FB687C3A84E2
  00000000000000BA: 40 8A C6           mov         al,sil
  00000000000000BD: EB 12              jmp         00000000000000D1
  00000000000000BF: 48 8D 75 28        lea         rsi,[rbp+28h]
  00000000000000C3: 48 8B CE           mov         rcx,rsi
  00000000000000C6: E8 00 00 00 00     call        destructor_TraceGuard_82262E3D79E486D306C249AA83E2FB687C3A84E2
  00000000000000CB: B3 00              mov         bl,0
  00000000000000CD: 8A C3              mov         al,bl
  00000000000000CF: EB 00              jmp         00000000000000D1
  00000000000000D1: 48 8D 65 30        lea         rsp,[rbp+30h]
  00000000000000D5: 5B                 pop         rbx
  00000000000000D6: 5B                 pop         rbx
  00000000000000D7: 41 5D              pop         r13
  00000000000000D9: 41 5C              pop         r12
  00000000000000DB: 5F                 pop         rdi
  00000000000000DC: 5E                 pop         rsi
  00000000000000DD: 5D                 pop         rbp
  00000000000000DE: C3                 ret
function_IsUpper_52ECB3BE04C358D00A9392FDC51A998AABFBA358:
  00000000000000DF: 55                 push        rbp
  00000000000000E0: 56                 push        rsi
  00000000000000E1: 57                 push        rdi
  00000000000000E2: 41 54              push        r12
  00000000000000E4: 41 55              push        r13
  00000000000000E6: 53                 push        rbx
  00000000000000E7: 53                 push        rbx
  00000000000000E8: 48 83 EC 50        sub         rsp,50h
  00000000000000EC: 48 8D 6C 24 20     lea         rbp,[rsp+20h]
  00000000000000F1: 40 8A F1           mov         sil,cl
  00000000000000F4: 40 88 75 08        mov         byte ptr [rbp+8],sil
  00000000000000F8: 48 B8 FE 00 00 00  mov         rax,5B0619DB000000FEh
                    DB 19 06 5B
  0000000000000102: 48 8B D0           mov         rdx,rax
  0000000000000105: 48 8D 7D 10        lea         rdi,[rbp+10h]
  0000000000000109: 48 8B CF           mov         rcx,rdi
  000000000000010C: E8 00 00 00 00     call        constructor_TraceEntry_26E1695E71A0E35C2150DA4E6BD1B4A55011008F
  0000000000000111: 48 8D 75 10        lea         rsi,[rbp+10h]
  0000000000000115: 48 8B D6           mov         rdx,rsi
  0000000000000118: 48 8D 7D 28        lea         rdi,[rbp+28h]
  000000000000011C: 48 8B CF           mov         rcx,rdi
  000000000000011F: E8 00 00 00 00     call        constructor_TraceGuard_BA2365F880229A4A3C2607337F6B3917C2419B9F
  0000000000000124: 48 C7 C3 10 00 00  mov         rbx,10h
                    00
  000000000000012B: 48 8D 4D 10        lea         rcx,[rbp+10h]
  000000000000012F: 48 8D 34 0B        lea         rsi,[rbx+rcx]
  0000000000000133: B8 10 00 00 00     mov         eax,10h
  0000000000000138: 89 06              mov         dword ptr [rsi],eax
  000000000000013A: 48 C7 C3 10 00 00  mov         rbx,10h
                    00
  0000000000000141: 48 8D 4D 10        lea         rcx,[rbp+10h]
  0000000000000145: 48 8D 34 0B        lea         rsi,[rbx+rcx]
  0000000000000149: B8 11 00 00 00     mov         eax,11h
  000000000000014E: 89 06              mov         dword ptr [rsi],eax
  0000000000000150: E8 00 00 00 00     call        member_function_Instance_CharClassTable_6970C3056FDEEFAD632316A08C443335D3B0B423
  0000000000000155: 48 8B F0           mov         rsi,rax
  0000000000000158: 40 8A 7D 08        mov         dil,byte ptr [rbp+8]
  000000000000015C: 40 8A D7           mov         dl,dil
  000000000000015F: 48 8B CE           mov         rcx,rsi
  0000000000000162: E8 00 00 00 00     call        member_function_GetCharacterClass_CharClassTable_54E7EF121ECEA2E82345B3CA1A4A75207B96D79A
  0000000000000167: 4C 8B E0           mov         r12,rax
  000000000000016A: 66 BB 02 00        mov         bx,2
  000000000000016E: 66 44 23 E3        and         r12w,bx
  0000000000000172: 66 41 8B F4        mov         si,r12w
  0000000000000176: 0F B7 FE           movzx       edi,si
  0000000000000179: B0 00              mov         al,0
  000000000000017B: 0F BE F0           movsx       esi,al
  000000000000017E: 3B FE              cmp         edi,esi
  0000000000000180: 41 0F 94 C4        sete        r12b
  0000000000000184: 41 8A F4           mov         sil,r12b
  0000000000000187: 40 80 F6 01        xor         sil,1
  000000000000018B: EB 00              jmp         000000000000018D
  000000000000018D: 48 8D 7D 28        lea         rdi,[rbp+28h]
  0000000000000191: 48 8B CF           mov         rcx,rdi
  0000000000000194: E8 00 00 00 00     call        destructor_TraceGuard_82262E3D79E486D306C249AA83E2FB687C3A84E2
  0000000000000199: 40 8A C6           mov         al,sil
  000000000000019C: EB 12              jmp         00000000000001B0
  000000000000019E: 48 8D 75 28        lea         rsi,[rbp+28h]
  00000000000001A2: 48 8B CE           mov         rcx,rsi
  00000000000001A5: E8 00 00 00 00     call        destructor_TraceGuard_82262E3D79E486D306C249AA83E2FB687C3A84E2
  00000000000001AA: B3 00              mov         bl,0
  00000000000001AC: 8A C3              mov         al,bl
  00000000000001AE: EB 00              jmp         00000000000001B0
  00000000000001B0: 48 8D 65 30        lea         rsp,[rbp+30h]
  00000000000001B4: 5B                 pop         rbx
  00000000000001B5: 5B                 pop         rbx
  00000000000001B6: 41 5D              pop         r13
  00000000000001B8: 41 5C              pop         r12
  00000000000001BA: 5F                 pop         rdi
  00000000000001BB: 5E                 pop         rsi
  00000000000001BC: 5D                 pop         rbp
  00000000000001BD: C3                 ret
function_IsAlpha_50A612392EF594FEF831443C8C1B36325C20E2F5:
  00000000000001BE: 55                 push        rbp
  00000000000001BF: 56                 push        rsi
  00000000000001C0: 57                 push        rdi
  00000000000001C1: 41 54              push        r12
  00000000000001C3: 41 55              push        r13
  00000000000001C5: 53                 push        rbx
  00000000000001C6: 53                 push        rbx
  00000000000001C7: 48 83 EC 50        sub         rsp,50h
  00000000000001CB: 48 8D 6C 24 20     lea         rbp,[rsp+20h]
  00000000000001D0: 40 8A F1           mov         sil,cl
  00000000000001D3: 40 88 75 08        mov         byte ptr [rbp+8],sil
  00000000000001D7: 48 B8 FF 00 00 00  mov         rax,5B0619DB000000FFh
                    DB 19 06 5B
  00000000000001E1: 48 8B D0           mov         rdx,rax
  00000000000001E4: 48 8D 7D 10        lea         rdi,[rbp+10h]
  00000000000001E8: 48 8B CF           mov         rcx,rdi
  00000000000001EB: E8 00 00 00 00     call        constructor_TraceEntry_26E1695E71A0E35C2150DA4E6BD1B4A55011008F
  00000000000001F0: 48 8D 75 10        lea         rsi,[rbp+10h]
  00000000000001F4: 48 8B D6           mov         rdx,rsi
  00000000000001F7: 48 8D 7D 28        lea         rdi,[rbp+28h]
  00000000000001FB: 48 8B CF           mov         rcx,rdi
  00000000000001FE: E8 00 00 00 00     call        constructor_TraceGuard_BA2365F880229A4A3C2607337F6B3917C2419B9F
  0000000000000203: 48 C7 C3 10 00 00  mov         rbx,10h
                    00
  000000000000020A: 48 8D 4D 10        lea         rcx,[rbp+10h]
  000000000000020E: 48 8D 34 0B        lea         rsi,[rbx+rcx]
  0000000000000212: B8 15 00 00 00     mov         eax,15h
  0000000000000217: 89 06              mov         dword ptr [rsi],eax
  0000000000000219: 48 C7 C3 10 00 00  mov         rbx,10h
                    00
  0000000000000220: 48 8D 4D 10        lea         rcx,[rbp+10h]
  0000000000000224: 48 8D 34 0B        lea         rsi,[rbx+rcx]
  0000000000000228: B8 16 00 00 00     mov         eax,16h
  000000000000022D: 89 06              mov         dword ptr [rsi],eax
  000000000000022F: E8 00 00 00 00     call        member_function_Instance_CharClassTable_6970C3056FDEEFAD632316A08C443335D3B0B423
  0000000000000234: 48 8B F0           mov         rsi,rax
  0000000000000237: 40 8A 7D 08        mov         dil,byte ptr [rbp+8]
  000000000000023B: 40 8A D7           mov         dl,dil
  000000000000023E: 48 8B CE           mov         rcx,rsi
  0000000000000241: E8 00 00 00 00     call        member_function_GetCharacterClass_CharClassTable_54E7EF121ECEA2E82345B3CA1A4A75207B96D79A
  0000000000000246: 4C 8B E0           mov         r12,rax
  0000000000000249: 66 BB 03 00        mov         bx,3
  000000000000024D: 66 44 23 E3        and         r12w,bx
  0000000000000251: 66 41 8B F4        mov         si,r12w
  0000000000000255: 0F B7 FE           movzx       edi,si
  0000000000000258: B0 00              mov         al,0
  000000000000025A: 0F BE F0           movsx       esi,al
  000000000000025D: 3B FE              cmp         edi,esi
  000000000000025F: 41 0F 94 C4        sete        r12b
  0000000000000263: 41 8A F4           mov         sil,r12b
  0000000000000266: 40 80 F6 01        xor         sil,1
  000000000000026A: EB 00              jmp         000000000000026C
  000000000000026C: 48 8D 7D 28        lea         rdi,[rbp+28h]
  0000000000000270: 48 8B CF           mov         rcx,rdi
  0000000000000273: E8 00 00 00 00     call        destructor_TraceGuard_82262E3D79E486D306C249AA83E2FB687C3A84E2
  0000000000000278: 40 8A C6           mov         al,sil
  000000000000027B: EB 12              jmp         000000000000028F
  000000000000027D: 48 8D 75 28        lea         rsi,[rbp+28h]
  0000000000000281: 48 8B CE           mov         rcx,rsi
  0000000000000284: E8 00 00 00 00     call        destructor_TraceGuard_82262E3D79E486D306C249AA83E2FB687C3A84E2
  0000000000000289: B3 00              mov         bl,0
  000000000000028B: 8A C3              mov         al,bl
  000000000000028D: EB 00              jmp         000000000000028F
  000000000000028F: 48 8D 65 30        lea         rsp,[rbp+30h]
  0000000000000293: 5B                 pop         rbx
  0000000000000294: 5B                 pop         rbx
  0000000000000295: 41 5D              pop         r13
  0000000000000297: 41 5C              pop         r12
  0000000000000299: 5F                 pop         rdi
  000000000000029A: 5E                 pop         rsi
  000000000000029B: 5D                 pop         rbp
  000000000000029C: C3                 ret
function_IsDigit_781C5B63930ED7D72B8397CAC6844621605C2CFE:
  000000000000029D: 55                 push        rbp
  000000000000029E: 56                 push        rsi
  000000000000029F: 57                 push        rdi
  00000000000002A0: 41 54              push        r12
  00000000000002A2: 41 55              push        r13
  00000000000002A4: 53                 push        rbx
  00000000000002A5: 53                 push        rbx
  00000000000002A6: 48 83 EC 50        sub         rsp,50h
  00000000000002AA: 48 8D 6C 24 20     lea         rbp,[rsp+20h]
  00000000000002AF: 40 8A F1           mov         sil,cl
  00000000000002B2: 40 88 75 08        mov         byte ptr [rbp+8],sil
  00000000000002B6: 48 B8 00 01 00 00  mov         rax,5B0619DB00000100h
                    DB 19 06 5B
  00000000000002C0: 48 8B D0           mov         rdx,rax
  00000000000002C3: 48 8D 7D 10        lea         rdi,[rbp+10h]
  00000000000002C7: 48 8B CF           mov         rcx,rdi
  00000000000002CA: E8 00 00 00 00     call        constructor_TraceEntry_26E1695E71A0E35C2150DA4E6BD1B4A55011008F
  00000000000002CF: 48 8D 75 10        lea         rsi,[rbp+10h]
  00000000000002D3: 48 8B D6           mov         rdx,rsi
  00000000000002D6: 48 8D 7D 28        lea         rdi,[rbp+28h]
  00000000000002DA: 48 8B CF           mov         rcx,rdi
  00000000000002DD: E8 00 00 00 00     call        constructor_TraceGuard_BA2365F880229A4A3C2607337F6B3917C2419B9F
  00000000000002E2: 48 C7 C3 10 00 00  mov         rbx,10h
                    00
  00000000000002E9: 48 8D 4D 10        lea         rcx,[rbp+10h]
  00000000000002ED: 48 8D 34 0B        lea         rsi,[rbx+rcx]
  00000000000002F1: B8 1A 00 00 00     mov         eax,1Ah
  00000000000002F6: 89 06              mov         dword ptr [rsi],eax
  00000000000002F8: 48 C7 C3 10 00 00  mov         rbx,10h
                    00
  00000000000002FF: 48 8D 4D 10        lea         rcx,[rbp+10h]
  0000000000000303: 48 8D 34 0B        lea         rsi,[rbx+rcx]
  0000000000000307: B8 1B 00 00 00     mov         eax,1Bh
  000000000000030C: 89 06              mov         dword ptr [rsi],eax
  000000000000030E: E8 00 00 00 00     call        member_function_Instance_CharClassTable_6970C3056FDEEFAD632316A08C443335D3B0B423
  0000000000000313: 48 8B F0           mov         rsi,rax
  0000000000000316: 40 8A 7D 08        mov         dil,byte ptr [rbp+8]
  000000000000031A: 40 8A D7           mov         dl,dil
  000000000000031D: 48 8B CE           mov         rcx,rsi
  0000000000000320: E8 00 00 00 00     call        member_function_GetCharacterClass_CharClassTable_54E7EF121ECEA2E82345B3CA1A4A75207B96D79A
  0000000000000325: 4C 8B E0           mov         r12,rax
  0000000000000328: 66 BB 04 00        mov         bx,4
  000000000000032C: 66 44 23 E3        and         r12w,bx
  0000000000000330: 66 41 8B F4        mov         si,r12w
  0000000000000334: 0F B7 FE           movzx       edi,si
  0000000000000337: B0 00              mov         al,0
  0000000000000339: 0F BE F0           movsx       esi,al
  000000000000033C: 3B FE              cmp         edi,esi
  000000000000033E: 41 0F 94 C4        sete        r12b
  0000000000000342: 41 8A F4           mov         sil,r12b
  0000000000000345: 40 80 F6 01        xor         sil,1
  0000000000000349: EB 00              jmp         000000000000034B
  000000000000034B: 48 8D 7D 28        lea         rdi,[rbp+28h]
  000000000000034F: 48 8B CF           mov         rcx,rdi
  0000000000000352: E8 00 00 00 00     call        destructor_TraceGuard_82262E3D79E486D306C249AA83E2FB687C3A84E2
  0000000000000357: 40 8A C6           mov         al,sil
  000000000000035A: EB 12              jmp         000000000000036E
  000000000000035C: 48 8D 75 28        lea         rsi,[rbp+28h]
  0000000000000360: 48 8B CE           mov         rcx,rsi
  0000000000000363: E8 00 00 00 00     call        destructor_TraceGuard_82262E3D79E486D306C249AA83E2FB687C3A84E2
  0000000000000368: B3 00              mov         bl,0
  000000000000036A: 8A C3              mov         al,bl
  000000000000036C: EB 00              jmp         000000000000036E
  000000000000036E: 48 8D 65 30        lea         rsp,[rbp+30h]
  0000000000000372: 5B                 pop         rbx
  0000000000000373: 5B                 pop         rbx
  0000000000000374: 41 5D              pop         r13
  0000000000000376: 41 5C              pop         r12
  0000000000000378: 5F                 pop         rdi
  0000000000000379: 5E                 pop         rsi
  000000000000037A: 5D                 pop         rbp
  000000000000037B: C3                 ret
function_IsAlphanumeric_E3998B70F88DCCEA01FC564EFDAD73114AFC1E39:
  000000000000037C: 55                 push        rbp
  000000000000037D: 56                 push        rsi
  000000000000037E: 57                 push        rdi
  000000000000037F: 41 54              push        r12
  0000000000000381: 41 55              push        r13
  0000000000000383: 53                 push        rbx
  0000000000000384: 53                 push        rbx
  0000000000000385: 48 83 EC 50        sub         rsp,50h
  0000000000000389: 48 8D 6C 24 20     lea         rbp,[rsp+20h]
  000000000000038E: 40 8A F1           mov         sil,cl
  0000000000000391: 40 88 75 08        mov         byte ptr [rbp+8],sil
  0000000000000395: 48 B8 01 01 00 00  mov         rax,5B0619DB00000101h
                    DB 19 06 5B
  000000000000039F: 48 8B D0           mov         rdx,rax
  00000000000003A2: 48 8D 7D 10        lea         rdi,[rbp+10h]
  00000000000003A6: 48 8B CF           mov         rcx,rdi
  00000000000003A9: E8 00 00 00 00     call        constructor_TraceEntry_26E1695E71A0E35C2150DA4E6BD1B4A55011008F
  00000000000003AE: 48 8D 75 10        lea         rsi,[rbp+10h]
  00000000000003B2: 48 8B D6           mov         rdx,rsi
  00000000000003B5: 48 8D 7D 28        lea         rdi,[rbp+28h]
  00000000000003B9: 48 8B CF           mov         rcx,rdi
  00000000000003BC: E8 00 00 00 00     call        constructor_TraceGuard_BA2365F880229A4A3C2607337F6B3917C2419B9F
  00000000000003C1: 48 C7 C3 10 00 00  mov         rbx,10h
                    00
  00000000000003C8: 48 8D 4D 10        lea         rcx,[rbp+10h]
  00000000000003CC: 48 8D 34 0B        lea         rsi,[rbx+rcx]
  00000000000003D0: B8 1F 00 00 00     mov         eax,1Fh
  00000000000003D5: 89 06              mov         dword ptr [rsi],eax
  00000000000003D7: 48 C7 C3 10 00 00  mov         rbx,10h
                    00
  00000000000003DE: 48 8D 4D 10        lea         rcx,[rbp+10h]
  00000000000003E2: 48 8D 34 0B        lea         rsi,[rbx+rcx]
  00000000000003E6: B8 20 00 00 00     mov         eax,20h
  00000000000003EB: 89 06              mov         dword ptr [rsi],eax
  00000000000003ED: E8 00 00 00 00     call        member_function_Instance_CharClassTable_6970C3056FDEEFAD632316A08C443335D3B0B423
  00000000000003F2: 48 8B F0           mov         rsi,rax
  00000000000003F5: 40 8A 7D 08        mov         dil,byte ptr [rbp+8]
  00000000000003F9: 40 8A D7           mov         dl,dil
  00000000000003FC: 48 8B CE           mov         rcx,rsi
  00000000000003FF: E8 00 00 00 00     call        member_function_GetCharacterClass_CharClassTable_54E7EF121ECEA2E82345B3CA1A4A75207B96D79A
  0000000000000404: 4C 8B E0           mov         r12,rax
  0000000000000407: 66 BB 07 00        mov         bx,7
  000000000000040B: 66 44 23 E3        and         r12w,bx
  000000000000040F: 66 41 8B F4        mov         si,r12w
  0000000000000413: 0F B7 FE           movzx       edi,si
  0000000000000416: B0 00              mov         al,0
  0000000000000418: 0F BE F0           movsx       esi,al
  000000000000041B: 3B FE              cmp         edi,esi
  000000000000041D: 41 0F 94 C4        sete        r12b
  0000000000000421: 41 8A F4           mov         sil,r12b
  0000000000000424: 40 80 F6 01        xor         sil,1
  0000000000000428: EB 00              jmp         000000000000042A
  000000000000042A: 48 8D 7D 28        lea         rdi,[rbp+28h]
  000000000000042E: 48 8B CF           mov         rcx,rdi
  0000000000000431: E8 00 00 00 00     call        destructor_TraceGuard_82262E3D79E486D306C249AA83E2FB687C3A84E2
  0000000000000436: 40 8A C6           mov         al,sil
  0000000000000439: EB 12              jmp         000000000000044D
  000000000000043B: 48 8D 75 28        lea         rsi,[rbp+28h]
  000000000000043F: 48 8B CE           mov         rcx,rsi
  0000000000000442: E8 00 00 00 00     call        destructor_TraceGuard_82262E3D79E486D306C249AA83E2FB687C3A84E2
  0000000000000447: B3 00              mov         bl,0
  0000000000000449: 8A C3              mov         al,bl
  000000000000044B: EB 00              jmp         000000000000044D
  000000000000044D: 48 8D 65 30        lea         rsp,[rbp+30h]
  0000000000000451: 5B                 pop         rbx
  0000000000000452: 5B                 pop         rbx
  0000000000000453: 41 5D              pop         r13
  0000000000000455: 41 5C              pop         r12
  0000000000000457: 5F                 pop         rdi
  0000000000000458: 5E                 pop         rsi
  0000000000000459: 5D                 pop         rbp
  000000000000045A: C3                 ret
function_IsHexDigit_DFE06D5B152C2E97B165F2723C60ED8FACC38CED:
  000000000000045B: 55                 push        rbp
  000000000000045C: 56                 push        rsi
  000000000000045D: 57                 push        rdi
  000000000000045E: 41 54              push        r12
  0000000000000460: 41 55              push        r13
  0000000000000462: 53                 push        rbx
  0000000000000463: 53                 push        rbx
  0000000000000464: 48 83 EC 50        sub         rsp,50h
  0000000000000468: 48 8D 6C 24 20     lea         rbp,[rsp+20h]
  000000000000046D: 40 8A F1           mov         sil,cl
  0000000000000470: 40 88 75 08        mov         byte ptr [rbp+8],sil
  0000000000000474: 48 B8 02 01 00 00  mov         rax,5B0619DB00000102h
                    DB 19 06 5B
  000000000000047E: 48 8B D0           mov         rdx,rax
  0000000000000481: 48 8D 7D 10        lea         rdi,[rbp+10h]
  0000000000000485: 48 8B CF           mov         rcx,rdi
  0000000000000488: E8 00 00 00 00     call        constructor_TraceEntry_26E1695E71A0E35C2150DA4E6BD1B4A55011008F
  000000000000048D: 48 8D 75 10        lea         rsi,[rbp+10h]
  0000000000000491: 48 8B D6           mov         rdx,rsi
  0000000000000494: 48 8D 7D 28        lea         rdi,[rbp+28h]
  0000000000000498: 48 8B CF           mov         rcx,rdi
  000000000000049B: E8 00 00 00 00     call        constructor_TraceGuard_BA2365F880229A4A3C2607337F6B3917C2419B9F
  00000000000004A0: 48 C7 C3 10 00 00  mov         rbx,10h
                    00
  00000000000004A7: 48 8D 4D 10        lea         rcx,[rbp+10h]
  00000000000004AB: 48 8D 34 0B        lea         rsi,[rbx+rcx]
  00000000000004AF: B8 24 00 00 00     mov         eax,24h
  00000000000004B4: 89 06              mov         dword ptr [rsi],eax
  00000000000004B6: 48 C7 C3 10 00 00  mov         rbx,10h
                    00
  00000000000004BD: 48 8D 4D 10        lea         rcx,[rbp+10h]
  00000000000004C1: 48 8D 34 0B        lea         rsi,[rbx+rcx]
  00000000000004C5: B8 25 00 00 00     mov         eax,25h
  00000000000004CA: 89 06              mov         dword ptr [rsi],eax
  00000000000004CC: E8 00 00 00 00     call        member_function_Instance_CharClassTable_6970C3056FDEEFAD632316A08C443335D3B0B423
  00000000000004D1: 48 8B F0           mov         rsi,rax
  00000000000004D4: 40 8A 7D 08        mov         dil,byte ptr [rbp+8]
  00000000000004D8: 40 8A D7           mov         dl,dil
  00000000000004DB: 48 8B CE           mov         rcx,rsi
  00000000000004DE: E8 00 00 00 00     call        member_function_GetCharacterClass_CharClassTable_54E7EF121ECEA2E82345B3CA1A4A75207B96D79A
  00000000000004E3: 4C 8B E0           mov         r12,rax
  00000000000004E6: 66 BB 08 00        mov         bx,8
  00000000000004EA: 66 44 23 E3        and         r12w,bx
  00000000000004EE: 66 41 8B F4        mov         si,r12w
  00000000000004F2: 0F B7 FE           movzx       edi,si
  00000000000004F5: B0 00              mov         al,0
  00000000000004F7: 0F BE F0           movsx       esi,al
  00000000000004FA: 3B FE              cmp         edi,esi
  00000000000004FC: 41 0F 94 C4        sete        r12b
  0000000000000500: 41 8A F4           mov         sil,r12b
  0000000000000503: 40 80 F6 01        xor         sil,1
  0000000000000507: EB 00              jmp         0000000000000509
  0000000000000509: 48 8D 7D 28        lea         rdi,[rbp+28h]
  000000000000050D: 48 8B CF           mov         rcx,rdi
  0000000000000510: E8 00 00 00 00     call        destructor_TraceGuard_82262E3D79E486D306C249AA83E2FB687C3A84E2
  0000000000000515: 40 8A C6           mov         al,sil
  0000000000000518: EB 12              jmp         000000000000052C
  000000000000051A: 48 8D 75 28        lea         rsi,[rbp+28h]
  000000000000051E: 48 8B CE           mov         rcx,rsi
  0000000000000521: E8 00 00 00 00     call        destructor_TraceGuard_82262E3D79E486D306C249AA83E2FB687C3A84E2
  0000000000000526: B3 00              mov         bl,0
  0000000000000528: 8A C3              mov         al,bl
  000000000000052A: EB 00              jmp         000000000000052C
  000000000000052C: 48 8D 65 30        lea         rsp,[rbp+30h]
  0000000000000530: 5B                 pop         rbx
  0000000000000531: 5B                 pop         rbx
  0000000000000532: 41 5D              pop         r13
  0000000000000534: 41 5C              pop         r12
  0000000000000536: 5F                 pop         rdi
  0000000000000537: 5E                 pop         rsi
  0000000000000538: 5D                 pop         rbp
  0000000000000539: C3                 ret
function_IsControl_DB7DC839D88221E16EB1F7B83CC7D8384BE679E7:
  000000000000053A: 55                 push        rbp
  000000000000053B: 56                 push        rsi
  000000000000053C: 57                 push        rdi
  000000000000053D: 41 54              push        r12
  000000000000053F: 41 55              push        r13
  0000000000000541: 53                 push        rbx
  0000000000000542: 53                 push        rbx
  0000000000000543: 48 83 EC 50        sub         rsp,50h
  0000000000000547: 48 8D 6C 24 20     lea         rbp,[rsp+20h]
  000000000000054C: 40 8A F1           mov         sil,cl
  000000000000054F: 40 88 75 08        mov         byte ptr [rbp+8],sil
  0000000000000553: 48 B8 03 01 00 00  mov         rax,5B0619DB00000103h
                    DB 19 06 5B
  000000000000055D: 48 8B D0           mov         rdx,rax
  0000000000000560: 48 8D 7D 10        lea         rdi,[rbp+10h]
  0000000000000564: 48 8B CF           mov         rcx,rdi
  0000000000000567: E8 00 00 00 00     call        constructor_TraceEntry_26E1695E71A0E35C2150DA4E6BD1B4A55011008F
  000000000000056C: 48 8D 75 10        lea         rsi,[rbp+10h]
  0000000000000570: 48 8B D6           mov         rdx,rsi
  0000000000000573: 48 8D 7D 28        lea         rdi,[rbp+28h]
  0000000000000577: 48 8B CF           mov         rcx,rdi
  000000000000057A: E8 00 00 00 00     call        constructor_TraceGuard_BA2365F880229A4A3C2607337F6B3917C2419B9F
  000000000000057F: 48 C7 C3 10 00 00  mov         rbx,10h
                    00
  0000000000000586: 48 8D 4D 10        lea         rcx,[rbp+10h]
  000000000000058A: 48 8D 34 0B        lea         rsi,[rbx+rcx]
  000000000000058E: B8 29 00 00 00     mov         eax,29h
  0000000000000593: 89 06              mov         dword ptr [rsi],eax
  0000000000000595: 48 C7 C3 10 00 00  mov         rbx,10h
                    00
  000000000000059C: 48 8D 4D 10        lea         rcx,[rbp+10h]
  00000000000005A0: 48 8D 34 0B        lea         rsi,[rbx+rcx]
  00000000000005A4: B8 2A 00 00 00     mov         eax,2Ah
  00000000000005A9: 89 06              mov         dword ptr [rsi],eax
  00000000000005AB: E8 00 00 00 00     call        member_function_Instance_CharClassTable_6970C3056FDEEFAD632316A08C443335D3B0B423
  00000000000005B0: 48 8B F0           mov         rsi,rax
  00000000000005B3: 40 8A 7D 08        mov         dil,byte ptr [rbp+8]
  00000000000005B7: 40 8A D7           mov         dl,dil
  00000000000005BA: 48 8B CE           mov         rcx,rsi
  00000000000005BD: E8 00 00 00 00     call        member_function_GetCharacterClass_CharClassTable_54E7EF121ECEA2E82345B3CA1A4A75207B96D79A
  00000000000005C2: 4C 8B E0           mov         r12,rax
  00000000000005C5: 66 BB 10 00        mov         bx,10h
  00000000000005C9: 66 44 23 E3        and         r12w,bx
  00000000000005CD: 66 41 8B F4        mov         si,r12w
  00000000000005D1: 0F B7 FE           movzx       edi,si
  00000000000005D4: B0 00              mov         al,0
  00000000000005D6: 0F BE F0           movsx       esi,al
  00000000000005D9: 3B FE              cmp         edi,esi
  00000000000005DB: 41 0F 94 C4        sete        r12b
  00000000000005DF: 41 8A F4           mov         sil,r12b
  00000000000005E2: 40 80 F6 01        xor         sil,1
  00000000000005E6: EB 00              jmp         00000000000005E8
  00000000000005E8: 48 8D 7D 28        lea         rdi,[rbp+28h]
  00000000000005EC: 48 8B CF           mov         rcx,rdi
  00000000000005EF: E8 00 00 00 00     call        destructor_TraceGuard_82262E3D79E486D306C249AA83E2FB687C3A84E2
  00000000000005F4: 40 8A C6           mov         al,sil
  00000000000005F7: EB 12              jmp         000000000000060B
  00000000000005F9: 48 8D 75 28        lea         rsi,[rbp+28h]
  00000000000005FD: 48 8B CE           mov         rcx,rsi
  0000000000000600: E8 00 00 00 00     call        destructor_TraceGuard_82262E3D79E486D306C249AA83E2FB687C3A84E2
  0000000000000605: B3 00              mov         bl,0
  0000000000000607: 8A C3              mov         al,bl
  0000000000000609: EB 00              jmp         000000000000060B
  000000000000060B: 48 8D 65 30        lea         rsp,[rbp+30h]
  000000000000060F: 5B                 pop         rbx
  0000000000000610: 5B                 pop         rbx
  0000000000000611: 41 5D              pop         r13
  0000000000000613: 41 5C              pop         r12
  0000000000000615: 5F                 pop         rdi
  0000000000000616: 5E                 pop         rsi
  0000000000000617: 5D                 pop         rbp
  0000000000000618: C3                 ret
function_IsGraphic_48FF5473F9D9CD0D67E40E7D89D4525E974D589E:
  0000000000000619: 55                 push        rbp
  000000000000061A: 56                 push        rsi
  000000000000061B: 57                 push        rdi
  000000000000061C: 41 54              push        r12
  000000000000061E: 41 55              push        r13
  0000000000000620: 53                 push        rbx
  0000000000000621: 53                 push        rbx
  0000000000000622: 48 83 EC 50        sub         rsp,50h
  0000000000000626: 48 8D 6C 24 20     lea         rbp,[rsp+20h]
  000000000000062B: 40 8A F1           mov         sil,cl
  000000000000062E: 40 88 75 08        mov         byte ptr [rbp+8],sil
  0000000000000632: 48 B8 04 01 00 00  mov         rax,5B0619DB00000104h
                    DB 19 06 5B
  000000000000063C: 48 8B D0           mov         rdx,rax
  000000000000063F: 48 8D 7D 10        lea         rdi,[rbp+10h]
  0000000000000643: 48 8B CF           mov         rcx,rdi
  0000000000000646: E8 00 00 00 00     call        constructor_TraceEntry_26E1695E71A0E35C2150DA4E6BD1B4A55011008F
  000000000000064B: 48 8D 75 10        lea         rsi,[rbp+10h]
  000000000000064F: 48 8B D6           mov         rdx,rsi
  0000000000000652: 48 8D 7D 28        lea         rdi,[rbp+28h]
  0000000000000656: 48 8B CF           mov         rcx,rdi
  0000000000000659: E8 00 00 00 00     call        constructor_TraceGuard_BA2365F880229A4A3C2607337F6B3917C2419B9F
  000000000000065E: 48 C7 C3 10 00 00  mov         rbx,10h
                    00
  0000000000000665: 48 8D 4D 10        lea         rcx,[rbp+10h]
  0000000000000669: 48 8D 34 0B        lea         rsi,[rbx+rcx]
  000000000000066D: B8 2E 00 00 00     mov         eax,2Eh
  0000000000000672: 89 06              mov         dword ptr [rsi],eax
  0000000000000674: 48 C7 C3 10 00 00  mov         rbx,10h
                    00
  000000000000067B: 48 8D 4D 10        lea         rcx,[rbp+10h]
  000000000000067F: 48 8D 34 0B        lea         rsi,[rbx+rcx]
  0000000000000683: B8 2F 00 00 00     mov         eax,2Fh
  0000000000000688: 89 06              mov         dword ptr [rsi],eax
  000000000000068A: E8 00 00 00 00     call        member_function_Instance_CharClassTable_6970C3056FDEEFAD632316A08C443335D3B0B423
  000000000000068F: 48 8B F0           mov         rsi,rax
  0000000000000692: 40 8A 7D 08        mov         dil,byte ptr [rbp+8]
  0000000000000696: 40 8A D7           mov         dl,dil
  0000000000000699: 48 8B CE           mov         rcx,rsi
  000000000000069C: E8 00 00 00 00     call        member_function_GetCharacterClass_CharClassTable_54E7EF121ECEA2E82345B3CA1A4A75207B96D79A
  00000000000006A1: 4C 8B E0           mov         r12,rax
  00000000000006A4: 66 BB 20 00        mov         bx,20h
  00000000000006A8: 66 44 23 E3        and         r12w,bx
  00000000000006AC: 66 41 8B F4        mov         si,r12w
  00000000000006B0: 0F B7 FE           movzx       edi,si
  00000000000006B3: B0 00              mov         al,0
  00000000000006B5: 0F BE F0           movsx       esi,al
  00000000000006B8: 3B FE              cmp         edi,esi
  00000000000006BA: 41 0F 94 C4        sete        r12b
  00000000000006BE: 41 8A F4           mov         sil,r12b
  00000000000006C1: 40 80 F6 01        xor         sil,1
  00000000000006C5: EB 00              jmp         00000000000006C7
  00000000000006C7: 48 8D 7D 28        lea         rdi,[rbp+28h]
  00000000000006CB: 48 8B CF           mov         rcx,rdi
  00000000000006CE: E8 00 00 00 00     call        destructor_TraceGuard_82262E3D79E486D306C249AA83E2FB687C3A84E2
  00000000000006D3: 40 8A C6           mov         al,sil
  00000000000006D6: EB 12              jmp         00000000000006EA
  00000000000006D8: 48 8D 75 28        lea         rsi,[rbp+28h]
  00000000000006DC: 48 8B CE           mov         rcx,rsi
  00000000000006DF: E8 00 00 00 00     call        destructor_TraceGuard_82262E3D79E486D306C249AA83E2FB687C3A84E2
  00000000000006E4: B3 00              mov         bl,0
  00000000000006E6: 8A C3              mov         al,bl
  00000000000006E8: EB 00              jmp         00000000000006EA
  00000000000006EA: 48 8D 65 30        lea         rsp,[rbp+30h]
  00000000000006EE: 5B                 pop         rbx
  00000000000006EF: 5B                 pop         rbx
  00000000000006F0: 41 5D              pop         r13
  00000000000006F2: 41 5C              pop         r12
  00000000000006F4: 5F                 pop         rdi
  00000000000006F5: 5E                 pop         rsi
  00000000000006F6: 5D                 pop         rbp
  00000000000006F7: C3                 ret
function_IsPrintable_A6ECB0EA8BAB0CA3284CC2F4A73759D4650A3B56:
  00000000000006F8: 55                 push        rbp
  00000000000006F9: 56                 push        rsi
  00000000000006FA: 57                 push        rdi
  00000000000006FB: 41 54              push        r12
  00000000000006FD: 41 55              push        r13
  00000000000006FF: 53                 push        rbx
  0000000000000700: 53                 push        rbx
  0000000000000701: 48 83 EC 50        sub         rsp,50h
  0000000000000705: 48 8D 6C 24 20     lea         rbp,[rsp+20h]
  000000000000070A: 40 8A F1           mov         sil,cl
  000000000000070D: 40 88 75 08        mov         byte ptr [rbp+8],sil
  0000000000000711: 48 B8 05 01 00 00  mov         rax,5B0619DB00000105h
                    DB 19 06 5B
  000000000000071B: 48 8B D0           mov         rdx,rax
  000000000000071E: 48 8D 7D 10        lea         rdi,[rbp+10h]
  0000000000000722: 48 8B CF           mov         rcx,rdi
  0000000000000725: E8 00 00 00 00     call        constructor_TraceEntry_26E1695E71A0E35C2150DA4E6BD1B4A55011008F
  000000000000072A: 48 8D 75 10        lea         rsi,[rbp+10h]
  000000000000072E: 48 8B D6           mov         rdx,rsi
  0000000000000731: 48 8D 7D 28        lea         rdi,[rbp+28h]
  0000000000000735: 48 8B CF           mov         rcx,rdi
  0000000000000738: E8 00 00 00 00     call        constructor_TraceGuard_BA2365F880229A4A3C2607337F6B3917C2419B9F
  000000000000073D: 48 C7 C3 10 00 00  mov         rbx,10h
                    00
  0000000000000744: 48 8D 4D 10        lea         rcx,[rbp+10h]
  0000000000000748: 48 8D 34 0B        lea         rsi,[rbx+rcx]
  000000000000074C: B8 33 00 00 00     mov         eax,33h
  0000000000000751: 89 06              mov         dword ptr [rsi],eax
  0000000000000753: 48 C7 C3 10 00 00  mov         rbx,10h
                    00
  000000000000075A: 48 8D 4D 10        lea         rcx,[rbp+10h]
  000000000000075E: 48 8D 34 0B        lea         rsi,[rbx+rcx]
  0000000000000762: B8 34 00 00 00     mov         eax,34h
  0000000000000767: 89 06              mov         dword ptr [rsi],eax
  0000000000000769: E8 00 00 00 00     call        member_function_Instance_CharClassTable_6970C3056FDEEFAD632316A08C443335D3B0B423
  000000000000076E: 48 8B F0           mov         rsi,rax
  0000000000000771: 40 8A 7D 08        mov         dil,byte ptr [rbp+8]
  0000000000000775: 40 8A D7           mov         dl,dil
  0000000000000778: 48 8B CE           mov         rcx,rsi
  000000000000077B: E8 00 00 00 00     call        member_function_GetCharacterClass_CharClassTable_54E7EF121ECEA2E82345B3CA1A4A75207B96D79A
  0000000000000780: 4C 8B E0           mov         r12,rax
  0000000000000783: 66 BB 40 00        mov         bx,40h
  0000000000000787: 66 44 23 E3        and         r12w,bx
  000000000000078B: 66 41 8B F4        mov         si,r12w
  000000000000078F: 0F B7 FE           movzx       edi,si
  0000000000000792: B0 00              mov         al,0
  0000000000000794: 0F BE F0           movsx       esi,al
  0000000000000797: 3B FE              cmp         edi,esi
  0000000000000799: 41 0F 94 C4        sete        r12b
  000000000000079D: 41 8A F4           mov         sil,r12b
  00000000000007A0: 40 80 F6 01        xor         sil,1
  00000000000007A4: EB 00              jmp         00000000000007A6
  00000000000007A6: 48 8D 7D 28        lea         rdi,[rbp+28h]
  00000000000007AA: 48 8B CF           mov         rcx,rdi
  00000000000007AD: E8 00 00 00 00     call        destructor_TraceGuard_82262E3D79E486D306C249AA83E2FB687C3A84E2
  00000000000007B2: 40 8A C6           mov         al,sil
  00000000000007B5: EB 12              jmp         00000000000007C9
  00000000000007B7: 48 8D 75 28        lea         rsi,[rbp+28h]
  00000000000007BB: 48 8B CE           mov         rcx,rsi
  00000000000007BE: E8 00 00 00 00     call        destructor_TraceGuard_82262E3D79E486D306C249AA83E2FB687C3A84E2
  00000000000007C3: B3 00              mov         bl,0
  00000000000007C5: 8A C3              mov         al,bl
  00000000000007C7: EB 00              jmp         00000000000007C9
  00000000000007C9: 48 8D 65 30        lea         rsp,[rbp+30h]
  00000000000007CD: 5B                 pop         rbx
  00000000000007CE: 5B                 pop         rbx
  00000000000007CF: 41 5D              pop         r13
  00000000000007D1: 41 5C              pop         r12
  00000000000007D3: 5F                 pop         rdi
  00000000000007D4: 5E                 pop         rsi
  00000000000007D5: 5D                 pop         rbp
  00000000000007D6: C3                 ret
function_IsPunctuation_7AC80D723F596A20B0B5AE04A4078D1EAAE51133:
  00000000000007D7: 55                 push        rbp
  00000000000007D8: 56                 push        rsi
  00000000000007D9: 57                 push        rdi
  00000000000007DA: 41 54              push        r12
  00000000000007DC: 41 55              push        r13
  00000000000007DE: 53                 push        rbx
  00000000000007DF: 53                 push        rbx
  00000000000007E0: 48 83 EC 50        sub         rsp,50h
  00000000000007E4: 48 8D 6C 24 20     lea         rbp,[rsp+20h]
  00000000000007E9: 40 8A F1           mov         sil,cl
  00000000000007EC: 40 88 75 08        mov         byte ptr [rbp+8],sil
  00000000000007F0: 48 B8 06 01 00 00  mov         rax,5B0619DB00000106h
                    DB 19 06 5B
  00000000000007FA: 48 8B D0           mov         rdx,rax
  00000000000007FD: 48 8D 7D 10        lea         rdi,[rbp+10h]
  0000000000000801: 48 8B CF           mov         rcx,rdi
  0000000000000804: E8 00 00 00 00     call        constructor_TraceEntry_26E1695E71A0E35C2150DA4E6BD1B4A55011008F
  0000000000000809: 48 8D 75 10        lea         rsi,[rbp+10h]
  000000000000080D: 48 8B D6           mov         rdx,rsi
  0000000000000810: 48 8D 7D 28        lea         rdi,[rbp+28h]
  0000000000000814: 48 8B CF           mov         rcx,rdi
  0000000000000817: E8 00 00 00 00     call        constructor_TraceGuard_BA2365F880229A4A3C2607337F6B3917C2419B9F
  000000000000081C: 48 C7 C3 10 00 00  mov         rbx,10h
                    00
  0000000000000823: 48 8D 4D 10        lea         rcx,[rbp+10h]
  0000000000000827: 48 8D 34 0B        lea         rsi,[rbx+rcx]
  000000000000082B: B8 38 00 00 00     mov         eax,38h
  0000000000000830: 89 06              mov         dword ptr [rsi],eax
  0000000000000832: 48 C7 C3 10 00 00  mov         rbx,10h
                    00
  0000000000000839: 48 8D 4D 10        lea         rcx,[rbp+10h]
  000000000000083D: 48 8D 34 0B        lea         rsi,[rbx+rcx]
  0000000000000841: B8 39 00 00 00     mov         eax,39h
  0000000000000846: 89 06              mov         dword ptr [rsi],eax
  0000000000000848: E8 00 00 00 00     call        member_function_Instance_CharClassTable_6970C3056FDEEFAD632316A08C443335D3B0B423
  000000000000084D: 48 8B F0           mov         rsi,rax
  0000000000000850: 40 8A 7D 08        mov         dil,byte ptr [rbp+8]
  0000000000000854: 40 8A D7           mov         dl,dil
  0000000000000857: 48 8B CE           mov         rcx,rsi
  000000000000085A: E8 00 00 00 00     call        member_function_GetCharacterClass_CharClassTable_54E7EF121ECEA2E82345B3CA1A4A75207B96D79A
  000000000000085F: 4C 8B E0           mov         r12,rax
  0000000000000862: 66 BB 80 00        mov         bx,80h
  0000000000000866: 66 44 23 E3        and         r12w,bx
  000000000000086A: 66 41 8B F4        mov         si,r12w
  000000000000086E: 0F B7 FE           movzx       edi,si
  0000000000000871: B0 00              mov         al,0
  0000000000000873: 0F BE F0           movsx       esi,al
  0000000000000876: 3B FE              cmp         edi,esi
  0000000000000878: 41 0F 94 C4        sete        r12b
  000000000000087C: 41 8A F4           mov         sil,r12b
  000000000000087F: 40 80 F6 01        xor         sil,1
  0000000000000883: EB 00              jmp         0000000000000885
  0000000000000885: 48 8D 7D 28        lea         rdi,[rbp+28h]
  0000000000000889: 48 8B CF           mov         rcx,rdi
  000000000000088C: E8 00 00 00 00     call        destructor_TraceGuard_82262E3D79E486D306C249AA83E2FB687C3A84E2
  0000000000000891: 40 8A C6           mov         al,sil
  0000000000000894: EB 12              jmp         00000000000008A8
  0000000000000896: 48 8D 75 28        lea         rsi,[rbp+28h]
  000000000000089A: 48 8B CE           mov         rcx,rsi
  000000000000089D: E8 00 00 00 00     call        destructor_TraceGuard_82262E3D79E486D306C249AA83E2FB687C3A84E2
  00000000000008A2: B3 00              mov         bl,0
  00000000000008A4: 8A C3              mov         al,bl
  00000000000008A6: EB 00              jmp         00000000000008A8
  00000000000008A8: 48 8D 65 30        lea         rsp,[rbp+30h]
  00000000000008AC: 5B                 pop         rbx
  00000000000008AD: 5B                 pop         rbx
  00000000000008AE: 41 5D              pop         r13
  00000000000008B0: 41 5C              pop         r12
  00000000000008B2: 5F                 pop         rdi
  00000000000008B3: 5E                 pop         rsi
  00000000000008B4: 5D                 pop         rbp
  00000000000008B5: C3                 ret
function_IsSpace_283A065AAD9D9CCC4B17DA021CEF6BFDB51E092E:
  00000000000008B6: 55                 push        rbp
  00000000000008B7: 56                 push        rsi
  00000000000008B8: 57                 push        rdi
  00000000000008B9: 41 54              push        r12
  00000000000008BB: 41 55              push        r13
  00000000000008BD: 53                 push        rbx
  00000000000008BE: 53                 push        rbx
  00000000000008BF: 48 83 EC 50        sub         rsp,50h
  00000000000008C3: 48 8D 6C 24 20     lea         rbp,[rsp+20h]
  00000000000008C8: 40 8A F1           mov         sil,cl
  00000000000008CB: 40 88 75 08        mov         byte ptr [rbp+8],sil
  00000000000008CF: 48 B8 07 01 00 00  mov         rax,5B0619DB00000107h
                    DB 19 06 5B
  00000000000008D9: 48 8B D0           mov         rdx,rax
  00000000000008DC: 48 8D 7D 10        lea         rdi,[rbp+10h]
  00000000000008E0: 48 8B CF           mov         rcx,rdi
  00000000000008E3: E8 00 00 00 00     call        constructor_TraceEntry_26E1695E71A0E35C2150DA4E6BD1B4A55011008F
  00000000000008E8: 48 8D 75 10        lea         rsi,[rbp+10h]
  00000000000008EC: 48 8B D6           mov         rdx,rsi
  00000000000008EF: 48 8D 7D 28        lea         rdi,[rbp+28h]
  00000000000008F3: 48 8B CF           mov         rcx,rdi
  00000000000008F6: E8 00 00 00 00     call        constructor_TraceGuard_BA2365F880229A4A3C2607337F6B3917C2419B9F
  00000000000008FB: 48 C7 C3 10 00 00  mov         rbx,10h
                    00
  0000000000000902: 48 8D 4D 10        lea         rcx,[rbp+10h]
  0000000000000906: 48 8D 34 0B        lea         rsi,[rbx+rcx]
  000000000000090A: B8 3D 00 00 00     mov         eax,3Dh
  000000000000090F: 89 06              mov         dword ptr [rsi],eax
  0000000000000911: 48 C7 C3 10 00 00  mov         rbx,10h
                    00
  0000000000000918: 48 8D 4D 10        lea         rcx,[rbp+10h]
  000000000000091C: 48 8D 34 0B        lea         rsi,[rbx+rcx]
  0000000000000920: B8 3E 00 00 00     mov         eax,3Eh
  0000000000000925: 89 06              mov         dword ptr [rsi],eax
  0000000000000927: E8 00 00 00 00     call        member_function_Instance_CharClassTable_6970C3056FDEEFAD632316A08C443335D3B0B423
  000000000000092C: 48 8B F0           mov         rsi,rax
  000000000000092F: 40 8A 7D 08        mov         dil,byte ptr [rbp+8]
  0000000000000933: 40 8A D7           mov         dl,dil
  0000000000000936: 48 8B CE           mov         rcx,rsi
  0000000000000939: E8 00 00 00 00     call        member_function_GetCharacterClass_CharClassTable_54E7EF121ECEA2E82345B3CA1A4A75207B96D79A
  000000000000093E: 4C 8B E0           mov         r12,rax
  0000000000000941: 66 BB 00 01        mov         bx,100h
  0000000000000945: 66 44 23 E3        and         r12w,bx
  0000000000000949: 66 41 8B F4        mov         si,r12w
  000000000000094D: 0F B7 FE           movzx       edi,si
  0000000000000950: B0 00              mov         al,0
  0000000000000952: 0F BE F0           movsx       esi,al
  0000000000000955: 3B FE              cmp         edi,esi
  0000000000000957: 41 0F 94 C4        sete        r12b
  000000000000095B: 41 8A F4           mov         sil,r12b
  000000000000095E: 40 80 F6 01        xor         sil,1
  0000000000000962: EB 00              jmp         0000000000000964
  0000000000000964: 48 8D 7D 28        lea         rdi,[rbp+28h]
  0000000000000968: 48 8B CF           mov         rcx,rdi
  000000000000096B: E8 00 00 00 00     call        destructor_TraceGuard_82262E3D79E486D306C249AA83E2FB687C3A84E2
  0000000000000970: 40 8A C6           mov         al,sil
  0000000000000973: EB 12              jmp         0000000000000987
  0000000000000975: 48 8D 75 28        lea         rsi,[rbp+28h]
  0000000000000979: 48 8B CE           mov         rcx,rsi
  000000000000097C: E8 00 00 00 00     call        destructor_TraceGuard_82262E3D79E486D306C249AA83E2FB687C3A84E2
  0000000000000981: B3 00              mov         bl,0
  0000000000000983: 8A C3              mov         al,bl
  0000000000000985: EB 00              jmp         0000000000000987
  0000000000000987: 48 8D 65 30        lea         rsp,[rbp+30h]
  000000000000098B: 5B                 pop         rbx
  000000000000098C: 5B                 pop         rbx
  000000000000098D: 41 5D              pop         r13
  000000000000098F: 41 5C              pop         r12
  0000000000000991: 5F                 pop         rdi
  0000000000000992: 5E                 pop         rsi
  0000000000000993: 5D                 pop         rbp
  0000000000000994: C3                 ret
function_AsciiToUpper_EE5321D932DD7E87BE1EAD94586C7DD97DA9AC49:
  0000000000000995: 55                 push        rbp
  0000000000000996: 56                 push        rsi
  0000000000000997: 57                 push        rdi
  0000000000000998: 53                 push        rbx
  0000000000000999: 53                 push        rbx
  000000000000099A: 48 83 EC 50        sub         rsp,50h
  000000000000099E: 48 8D 6C 24 20     lea         rbp,[rsp+20h]
  00000000000009A3: 40 8A F1           mov         sil,cl
  00000000000009A6: 40 88 75 08        mov         byte ptr [rbp+8],sil
  00000000000009AA: 48 B8 08 01 00 00  mov         rax,5B0619DB00000108h
                    DB 19 06 5B
  00000000000009B4: 48 8B D0           mov         rdx,rax
  00000000000009B7: 48 8D 7D 10        lea         rdi,[rbp+10h]
  00000000000009BB: 48 8B CF           mov         rcx,rdi
  00000000000009BE: E8 00 00 00 00     call        constructor_TraceEntry_26E1695E71A0E35C2150DA4E6BD1B4A55011008F
  00000000000009C3: 48 8D 75 10        lea         rsi,[rbp+10h]
  00000000000009C7: 48 8B D6           mov         rdx,rsi
  00000000000009CA: 48 8D 7D 28        lea         rdi,[rbp+28h]
  00000000000009CE: 48 8B CF           mov         rcx,rdi
  00000000000009D1: E8 00 00 00 00     call        constructor_TraceGuard_BA2365F880229A4A3C2607337F6B3917C2419B9F
  00000000000009D6: 48 C7 C3 10 00 00  mov         rbx,10h
                    00
  00000000000009DD: 48 8D 4D 10        lea         rcx,[rbp+10h]
  00000000000009E1: 48 8D 34 0B        lea         rsi,[rbx+rcx]
  00000000000009E5: B8 42 00 00 00     mov         eax,42h
  00000000000009EA: 89 06              mov         dword ptr [rsi],eax
  00000000000009EC: 48 C7 C3 10 00 00  mov         rbx,10h
                    00
  00000000000009F3: 48 8D 4D 10        lea         rcx,[rbp+10h]
  00000000000009F7: 48 8D 34 0B        lea         rsi,[rbx+rcx]
  00000000000009FB: B8 43 00 00 00     mov         eax,43h
  0000000000000A00: 89 06              mov         dword ptr [rsi],eax
  0000000000000A02: 40 8A 75 08        mov         sil,byte ptr [rbp+8]
  0000000000000A06: 40 8A CE           mov         cl,sil
  0000000000000A09: E8 00 00 00 00     call        RtmAsciiToUpper
  0000000000000A0E: 48 8B F8           mov         rdi,rax
  0000000000000A11: EB 00              jmp         0000000000000A13
  0000000000000A13: 48 8D 75 28        lea         rsi,[rbp+28h]
  0000000000000A17: 48 8B CE           mov         rcx,rsi
  0000000000000A1A: E8 00 00 00 00     call        destructor_TraceGuard_82262E3D79E486D306C249AA83E2FB687C3A84E2
  0000000000000A1F: 40 8A C7           mov         al,dil
  0000000000000A22: EB 12              jmp         0000000000000A36
  0000000000000A24: 48 8D 75 28        lea         rsi,[rbp+28h]
  0000000000000A28: 48 8B CE           mov         rcx,rsi
  0000000000000A2B: E8 00 00 00 00     call        destructor_TraceGuard_82262E3D79E486D306C249AA83E2FB687C3A84E2
  0000000000000A30: B3 00              mov         bl,0
  0000000000000A32: 8A C3              mov         al,bl
  0000000000000A34: EB 00              jmp         0000000000000A36
  0000000000000A36: 48 8D 65 30        lea         rsp,[rbp+30h]
  0000000000000A3A: 5B                 pop         rbx
  0000000000000A3B: 5B                 pop         rbx
  0000000000000A3C: 5F                 pop         rdi
  0000000000000A3D: 5E                 pop         rsi
  0000000000000A3E: 5D                 pop         rbp
  0000000000000A3F: C3                 ret
function_AsciiToLower_3EFEFA398D899733B957066715008401C155FB34:
  0000000000000A40: 55                 push        rbp
  0000000000000A41: 56                 push        rsi
  0000000000000A42: 57                 push        rdi
  0000000000000A43: 53                 push        rbx
  0000000000000A44: 53                 push        rbx
  0000000000000A45: 48 83 EC 50        sub         rsp,50h
  0000000000000A49: 48 8D 6C 24 20     lea         rbp,[rsp+20h]
  0000000000000A4E: 40 8A F1           mov         sil,cl
  0000000000000A51: 40 88 75 08        mov         byte ptr [rbp+8],sil
  0000000000000A55: 48 B8 09 01 00 00  mov         rax,5B0619DB00000109h
                    DB 19 06 5B
  0000000000000A5F: 48 8B D0           mov         rdx,rax
  0000000000000A62: 48 8D 7D 10        lea         rdi,[rbp+10h]
  0000000000000A66: 48 8B CF           mov         rcx,rdi
  0000000000000A69: E8 00 00 00 00     call        constructor_TraceEntry_26E1695E71A0E35C2150DA4E6BD1B4A55011008F
  0000000000000A6E: 48 8D 75 10        lea         rsi,[rbp+10h]
  0000000000000A72: 48 8B D6           mov         rdx,rsi
  0000000000000A75: 48 8D 7D 28        lea         rdi,[rbp+28h]
  0000000000000A79: 48 8B CF           mov         rcx,rdi
  0000000000000A7C: E8 00 00 00 00     call        constructor_TraceGuard_BA2365F880229A4A3C2607337F6B3917C2419B9F
  0000000000000A81: 48 C7 C3 10 00 00  mov         rbx,10h
                    00
  0000000000000A88: 48 8D 4D 10        lea         rcx,[rbp+10h]
  0000000000000A8C: 48 8D 34 0B        lea         rsi,[rbx+rcx]
  0000000000000A90: B8 47 00 00 00     mov         eax,47h
  0000000000000A95: 89 06              mov         dword ptr [rsi],eax
  0000000000000A97: 48 C7 C3 10 00 00  mov         rbx,10h
                    00
  0000000000000A9E: 48 8D 4D 10        lea         rcx,[rbp+10h]
  0000000000000AA2: 48 8D 34 0B        lea         rsi,[rbx+rcx]
  0000000000000AA6: B8 48 00 00 00     mov         eax,48h
  0000000000000AAB: 89 06              mov         dword ptr [rsi],eax
  0000000000000AAD: 40 8A 75 08        mov         sil,byte ptr [rbp+8]
  0000000000000AB1: 40 8A CE           mov         cl,sil
  0000000000000AB4: E8 00 00 00 00     call        RtmAsciiToLower
  0000000000000AB9: 48 8B F8           mov         rdi,rax
  0000000000000ABC: EB 00              jmp         0000000000000ABE
  0000000000000ABE: 48 8D 75 28        lea         rsi,[rbp+28h]
  0000000000000AC2: 48 8B CE           mov         rcx,rsi
  0000000000000AC5: E8 00 00 00 00     call        destructor_TraceGuard_82262E3D79E486D306C249AA83E2FB687C3A84E2
  0000000000000ACA: 40 8A C7           mov         al,dil
  0000000000000ACD: EB 12              jmp         0000000000000AE1
  0000000000000ACF: 48 8D 75 28        lea         rsi,[rbp+28h]
  0000000000000AD3: 48 8B CE           mov         rcx,rsi
  0000000000000AD6: E8 00 00 00 00     call        destructor_TraceGuard_82262E3D79E486D306C249AA83E2FB687C3A84E2
  0000000000000ADB: B3 00              mov         bl,0
  0000000000000ADD: 8A C3              mov         al,bl
  0000000000000ADF: EB 00              jmp         0000000000000AE1
  0000000000000AE1: 48 8D 65 30        lea         rsp,[rbp+30h]
  0000000000000AE5: 5B                 pop         rbx
  0000000000000AE6: 5B                 pop         rbx
  0000000000000AE7: 5F                 pop         rdi
  0000000000000AE8: 5E                 pop         rsi
  0000000000000AE9: 5D                 pop         rbp
  0000000000000AEA: C3                 ret

RAW DATA #1
  00000000: 55 56 57 41 54 41 55 53 53 48 83 EC 50 48 8D 6C  UVWATAUSSH.PH.l
  00000010: 24 20 40 8A F1 40 88 75 08 48 B8 FD 00 00 00 DB  $ @.@.u.H...
  00000020: 19 06 5B 48 8B D0 48 8D 7D 10 48 8B CF E8 00 00  ..[H.H.}.H...
  00000030: 00 00 48 8D 75 10 48 8B D6 48 8D 7D 28 48 8B CF  ..H.u.H.H.}(H.
  00000040: E8 00 00 00 00 48 C7 C3 10 00 00 00 48 8D 4D 10  ....H....H.M.
  00000050: 48 8D 34 0B B8 0B 00 00 00 89 06 48 C7 C3 10 00  H.4.......H..
  00000060: 00 00 48 8D 4D 10 48 8D 34 0B B8 0C 00 00 00 89  ..H.M.H.4......
  00000070: 06 E8 00 00 00 00 48 8B F0 40 8A 7D 08 40 8A D7  .....H.@.}.@.
  00000080: 48 8B CE E8 00 00 00 00 4C 8B E0 66 BB 01 00 66  H.....L.f..f
  00000090: 44 23 E3 66 41 8B F4 0F B7 FE B0 00 0F BE F0 3B  D#fA....;
  000000A0: FE 41 0F 94 C4 41 8A F4 40 80 F6 01 EB 00 48 8D  A..A.@...H.
  000000B0: 7D 28 48 8B CF E8 00 00 00 00 40 8A C6 EB 12 48  }(H.....@..H
  000000C0: 8D 75 28 48 8B CE E8 00 00 00 00 B3 00 8A C3 EB  .u(H.......
  000000D0: 00 48 8D 65 30 5B 5B 41 5D 41 5C 5F 5E 5D C3 55  .H.e0[[A]A\_^]U
  000000E0: 56 57 41 54 41 55 53 53 48 83 EC 50 48 8D 6C 24  VWATAUSSH.PH.l$
  000000F0: 20 40 8A F1 40 88 75 08 48 B8 FE 00 00 00 DB 19   @.@.u.H....
  00000100: 06 5B 48 8B D0 48 8D 7D 10 48 8B CF E8 00 00 00  .[H.H.}.H....
  00000110: 00 48 8D 75 10 48 8B D6 48 8D 7D 28 48 8B CF E8  .H.u.H.H.}(H.
  00000120: 00 00 00 00 48 C7 C3 10 00 00 00 48 8D 4D 10 48  ....H....H.M.H
  00000130: 8D 34 0B B8 10 00 00 00 89 06 48 C7 C3 10 00 00  .4.......H...
  00000140: 00 48 8D 4D 10 48 8D 34 0B B8 11 00 00 00 89 06  .H.M.H.4.......
  00000150: E8 00 00 00 00 48 8B F0 40 8A 7D 08 40 8A D7 48  ....H.@.}.@.H
  00000160: 8B CE E8 00 00 00 00 4C 8B E0 66 BB 02 00 66 44  .....L.f..fD
  00000170: 23 E3 66 41 8B F4 0F B7 FE B0 00 0F BE F0 3B FE  #fA....;
  00000180: 41 0F 94 C4 41 8A F4 40 80 F6 01 EB 00 48 8D 7D  A..A.@...H.}
  00000190: 28 48 8B CF E8 00 00 00 00 40 8A C6 EB 12 48 8D  (H.....@..H.
  000001A0: 75 28 48 8B CE E8 00 00 00 00 B3 00 8A C3 EB 00  u(H........
  000001B0: 48 8D 65 30 5B 5B 41 5D 41 5C 5F 5E 5D C3 55 56  H.e0[[A]A\_^]UV
  000001C0: 57 41 54 41 55 53 53 48 83 EC 50 48 8D 6C 24 20  WATAUSSH.PH.l$ 
  000001D0: 40 8A F1 40 88 75 08 48 B8 FF 00 00 00 DB 19 06  @.@.u.H.....
  000001E0: 5B 48 8B D0 48 8D 7D 10 48 8B CF E8 00 00 00 00  [H.H.}.H.....
  000001F0: 48 8D 75 10 48 8B D6 48 8D 7D 28 48 8B CF E8 00  H.u.H.H.}(H..
  00000200: 00 00 00 48 C7 C3 10 00 00 00 48 8D 4D 10 48 8D  ...H....H.M.H.
  00000210: 34 0B B8 15 00 00 00 89 06 48 C7 C3 10 00 00 00  4.......H....
  00000220: 48 8D 4D 10 48 8D 34 0B B8 16 00 00 00 89 06 E8  H.M.H.4.......
  00000230: 00 00 00 00 48 8B F0 40 8A 7D 08 40 8A D7 48 8B  ....H.@.}.@.H.
  00000240: CE E8 00 00 00 00 4C 8B E0 66 BB 03 00 66 44 23  ....L.f..fD#
  00000250: E3 66 41 8B F4 0F B7 FE B0 00 0F BE F0 3B FE 41  fA....;A
  00000260: 0F 94 C4 41 8A F4 40 80 F6 01 EB 00 48 8D 7D 28  ..A.@...H.}(
  00000270: 48 8B CF E8 00 00 00 00 40 8A C6 EB 12 48 8D 75  H.....@..H.u
  00000280: 28 48 8B CE E8 00 00 00 00 B3 00 8A C3 EB 00 48  (H........H
  00000290: 8D 65 30 5B 5B 41 5D 41 5C 5F 5E 5D C3 55 56 57  .e0[[A]A\_^]UVW
  000002A0: 41 54 41 55 53 53 48 83 EC 50 48 8D 6C 24 20 40  ATAUSSH.PH.l$ @
  000002B0: 8A F1 40 88 75 08 48 B8 00 01 00 00 DB 19 06 5B  .@.u.H......[
  000002C0: 48 8B D0 48 8D 7D 10 48 8B CF E8 00 00 00 00 48  H.H.}.H.....H
  000002D0: 8D 75 10 48 8B D6 48 8D 7D 28 48 8B CF E8 00 00  .u.H.H.}(H...
  000002E0: 00 00 48 C7 C3 10 00 00 00 48 8D 4D 10 48 8D 34  ..H....H.M.H.4
  000002F0: 0B B8 1A 00 00 00 89 06 48 C7 C3 10 00 00 00 48  .......H....H
  00000300: 8D 4D 10 48 8D 34 0B B8 1B 00 00 00 89 06 E8 00  .M.H.4........
  00000310: 00 00 00 48 8B F0 40 8A 7D 08 40 8A D7 48 8B CE  ...H.@.}.@.H.
  00000320: E8 00 00 00 00 4C 8B E0 66 BB 04 00 66 44 23 E3  ....L.f..fD#
  00000330: 66 41 8B F4 0F B7 FE B0 00 0F BE F0 3B FE 41 0F  fA....;A.
  00000340: 94 C4 41 8A F4 40 80 F6 01 EB 00 48 8D 7D 28 48  .A.@...H.}(H
  00000350: 8B CF E8 00 00 00 00 40 8A C6 EB 12 48 8D 75 28  .....@..H.u(
  00000360: 48 8B CE E8 00 00 00 00 B3 00 8A C3 EB 00 48 8D  H........H.
  00000370: 65 30 5B 5B 41 5D 41 5C 5F 5E 5D C3 55 56 57 41  e0[[A]A\_^]UVWA
  00000380: 54 41 55 53 53 48 83 EC 50 48 8D 6C 24 20 40 8A  TAUSSH.PH.l$ @.
  00000390: F1 40 88 75 08 48 B8 01 01 00 00 DB 19 06 5B 48  @.u.H......[H
  000003A0: 8B D0 48 8D 7D 10 48 8B CF E8 00 00 00 00 48 8D  .H.}.H.....H.
  000003B0: 75 10 48 8B D6 48 8D 7D 28 48 8B CF E8 00 00 00  u.H.H.}(H....
  000003C0: 00 48 C7 C3 10 00 00 00 48 8D 4D 10 48 8D 34 0B  .H....H.M.H.4.
  000003D0: B8 1F 00 00 00 89 06 48 C7 C3 10 00 00 00 48 8D  ......H....H.
  000003E0: 4D 10 48 8D 34 0B B8 20 00 00 00 89 06 E8 00 00  M.H.4. .......
  000003F0: 00 00 48 8B F0 40 8A 7D 08 40 8A D7 48 8B CE E8  ..H.@.}.@.H.
  00000400: 00 00 00 00 4C 8B E0 66 BB 07 00 66 44 23 E3 66  ....L.f..fD#f
  00000410: 41 8B F4 0F B7 FE B0 00 0F BE F0 3B FE 41 0F 94  A....;A..
  00000420: C4 41 8A F4 40 80 F6 01 EB 00 48 8D 7D 28 48 8B  A.@...H.}(H.
  00000430: CF E8 00 00 00 00 40 8A C6 EB 12 48 8D 75 28 48  ....@..H.u(H
  00000440: 8B CE E8 00 00 00 00 B3 00 8A C3 EB 00 48 8D 65  ........H.e
  00000450: 30 5B 5B 41 5D 41 5C 5F 5E 5D C3 55 56 57 41 54  0[[A]A\_^]UVWAT
  00000460: 41 55 53 53 48 83 EC 50 48 8D 6C 24 20 40 8A F1  AUSSH.PH.l$ @.
  00000470: 40 88 75 08 48 B8 02 01 00 00 DB 19 06 5B 48 8B  @.u.H......[H.
  00000480: D0 48 8D 7D 10 48 8B CF E8 00 00 00 00 48 8D 75  H.}.H.....H.u
  00000490: 10 48 8B D6 48 8D 7D 28 48 8B CF E8 00 00 00 00  .H.H.}(H.....
  000004A0: 48 C7 C3 10 00 00 00 48 8D 4D 10 48 8D 34 0B B8  H....H.M.H.4.
  000004B0: 24 00 00 00 89 06 48 C7 C3 10 00 00 00 48 8D 4D  $.....H....H.M
  000004C0: 10 48 8D 34 0B B8 25 00 00 00 89 06 E8 00 00 00  .H.4.%........
  000004D0: 00 48 8B F0 40 8A 7D 08 40 8A D7 48 8B CE E8 00  .H.@.}.@.H..
  000004E0: 00 00 00 4C 8B E0 66 BB 08 00 66 44 23 E3 66 41  ...L.f..fD#fA
  000004F0: 8B F4 0F B7 FE B0 00 0F BE F0 3B FE 41 0F 94 C4  ....;A..
  00000500: 41 8A F4 40 80 F6 01 EB 00 48 8D 7D 28 48 8B CF  A.@...H.}(H.
  00000510: E8 00 00 00 00 40 8A C6 EB 12 48 8D 75 28 48 8B  ....@..H.u(H.
  00000520: CE E8 00 00 00 00 B3 00 8A C3 EB 00 48 8D 65 30  .......H.e0
  00000530: 5B 5B 41 5D 41 5C 5F 5E 5D C3 55 56 57 41 54 41  [[A]A\_^]UVWATA
  00000540: 55 53 53 48 83 EC 50 48 8D 6C 24 20 40 8A F1 40  USSH.PH.l$ @.@
  00000550: 88 75 08 48 B8 03 01 00 00 DB 19 06 5B 48 8B D0  .u.H......[H.
  00000560: 48 8D 7D 10 48 8B CF E8 00 00 00 00 48 8D 75 10  H.}.H.....H.u.
  00000570: 48 8B D6 48 8D 7D 28 48 8B CF E8 00 00 00 00 48  H.H.}(H.....H
  00000580: C7 C3 10 00 00 00 48 8D 4D 10 48 8D 34 0B B8 29  ....H.M.H.4.)
  00000590: 00 00 00 89 06 48 C7 C3 10 00 00 00 48 8D 4D 10  .....H....H.M.
  000005A0: 48 8D 34 0B B8 2A 00 00 00 89 06 E8 00 00 00 00  H.4.*.........
  000005B0: 48 8B F0 40 8A 7D 08 40 8A D7 48 8B CE E8 00 00  H.@.}.@.H...
  000005C0: 00 00 4C 8B E0 66 BB 10 00 66 44 23 E3 66 41 8B  ..L.f..fD#fA.
  000005D0: F4 0F B7 FE B0 00 0F BE F0 3B FE 41 0F 94 C4 41  ...;A..A
  000005E0: 8A F4 40 80 F6 01 EB 00 48 8D 7D 28 48 8B CF E8  .@...H.}(H.
  000005F0: 00 00 00 00 40 8A C6 EB 12 48 8D 75 28 48 8B CE  ....@..H.u(H.
  00000600: E8 00 00 00 00 B3 00 8A C3 EB 00 48 8D 65 30 5B  .......H.e0[
  00000610: 5B 41 5D 41 5C 5F 5E 5D C3 55 56 57 41 54 41 55  [A]A\_^]UVWATAU
  00000620: 53 53 48 83 EC 50 48 8D 6C 24 20 40 8A F1 40 88  SSH.PH.l$ @.@.
  00000630: 75 08 48 B8 04 01 00 00 DB 19 06 5B 48 8B D0 48  u.H......[H.H
  00000640: 8D 7D 10 48 8B CF E8 00 00 00 00 48 8D 75 10 48  .}.H.....H.u.H
  00000650: 8B D6 48 8D 7D 28 48 8B CF E8 00 00 00 00 48 C7  .H.}(H.....H
  00000660: C3 10 00 00 00 48 8D 4D 10 48 8D 34 0B B8 2E 00  ....H.M.H.4...
  00000670: 00 00 89 06 48 C7 C3 10 00 00 00 48 8D 4D 10 48  ....H....H.M.H
  00000680: 8D 34 0B B8 2F 00 00 00 89 06 E8 00 00 00 00 48  .4./.........H
  00000690: 8B F0 40 8A 7D 08 40 8A D7 48 8B CE E8 00 00 00  .@.}.@.H....
  000006A0: 00 4C 8B E0 66 BB 20 00 66 44 23 E3 66 41 8B F4  .L.f .fD#fA.
  000006B0: 0F B7 FE B0 00 0F BE F0 3B FE 41 0F 94 C4 41 8A  ...;A..A.
  000006C0: F4 40 80 F6 01 EB 00 48 8D 7D 28 48 8B CF E8 00  @...H.}(H..
  000006D0: 00 00 00 40 8A C6 EB 12 48 8D 75 28 48 8B CE E8  ...@..H.u(H.
  000006E0: 00 00 00 00 B3 00 8A C3 EB 00 48 8D 65 30 5B 5B  .......H.e0[[
  000006F0: 41 5D 41 5C 5F 5E 5D C3 55 56 57 41 54 41 55 53  A]A\_^]UVWATAUS
  00000700: 53 48 83 EC 50 48 8D 6C 24 20 40 8A F1 40 88 75  SH.PH.l$ @.@.u
  00000710: 08 48 B8 05 01 00 00 DB 19 06 5B 48 8B D0 48 8D  .H......[H.H.
  00000720: 7D 10 48 8B CF E8 00 00 00 00 48 8D 75 10 48 8B  }.H.....H.u.H.
  00000730: D6 48 8D 7D 28 48 8B CF E8 00 00 00 00 48 C7 C3  H.}(H.....H
  00000740: 10 00 00 00 48 8D 4D 10 48 8D 34 0B B8 33 00 00  ....H.M.H.4.3..
  00000750: 00 89 06 48 C7 C3 10 00 00 00 48 8D 4D 10 48 8D  ...H....H.M.H.
  00000760: 34 0B B8 34 00 00 00 89 06 E8 00 00 00 00 48 8B  4.4.........H.
  00000770: F0 40 8A 7D 08 40 8A D7 48 8B CE E8 00 00 00 00  @.}.@.H.....
  00000780: 4C 8B E0 66 BB 40 00 66 44 23 E3 66 41 8B F4 0F  L.f@.fD#fA..
  00000790: B7 FE B0 00 0F BE F0 3B FE 41 0F 94 C4 41 8A F4  ..;A..A.
  000007A0: 40 80 F6 01 EB 00 48 8D 7D 28 48 8B CF E8 00 00  @...H.}(H...
  000007B0: 00 00 40 8A C6 EB 12 48 8D 75 28 48 8B CE E8 00  ..@..H.u(H..
  000007C0: 00 00 00 B3 00 8A C3 EB 00 48 8D 65 30 5B 5B 41  ......H.e0[[A
  000007D0: 5D 41 5C 5F 5E 5D C3 55 56 57 41 54 41 55 53 53  ]A\_^]UVWATAUSS
  000007E0: 48 83 EC 50 48 8D 6C 24 20 40 8A F1 40 88 75 08  H.PH.l$ @.@.u.
  000007F0: 48 B8 06 01 00 00 DB 19 06 5B 48 8B D0 48 8D 7D  H......[H.H.}
  00000800: 10 48 8B CF E8 00 00 00 00 48 8D 75 10 48 8B D6  .H.....H.u.H.
  00000810: 48 8D 7D 28 48 8B CF E8 00 00 00 00 48 C7 C3 10  H.}(H.....H.
  00000820: 00 00 00 48 8D 4D 10 48 8D 34 0B B8 38 00 00 00  ...H.M.H.4.8...
  00000830: 89 06 48 C7 C3 10 00 00 00 48 8D 4D 10 48 8D 34  ..H....H.M.H.4
  00000840: 0B B8 39 00 00 00 89 06 E8 00 00 00 00 48 8B F0  .9.........H.
  00000850: 40 8A 7D 08 40 8A D7 48 8B CE E8 00 00 00 00 4C  @.}.@.H.....L
  00000860: 8B E0 66 BB 80 00 66 44 23 E3 66 41 8B F4 0F B7  .f..fD#fA..
  00000870: FE B0 00 0F BE F0 3B FE 41 0F 94 C4 41 8A F4 40  ..;A..A.@
  00000880: 80 F6 01 EB 00 48 8D 7D 28 48 8B CF E8 00 00 00  ...H.}(H....
  00000890: 00 40 8A C6 EB 12 48 8D 75 28 48 8B CE E8 00 00  .@..H.u(H...
  000008A0: 00 00 B3 00 8A C3 EB 00 48 8D 65 30 5B 5B 41 5D  .....H.e0[[A]
  000008B0: 41 5C 5F 5E 5D C3 55 56 57 41 54 41 55 53 53 48  A\_^]UVWATAUSSH
  000008C0: 83 EC 50 48 8D 6C 24 20 40 8A F1 40 88 75 08 48  .PH.l$ @.@.u.H
  000008D0: B8 07 01 00 00 DB 19 06 5B 48 8B D0 48 8D 7D 10  ......[H.H.}.
  000008E0: 48 8B CF E8 00 00 00 00 48 8D 75 10 48 8B D6 48  H.....H.u.H.H
  000008F0: 8D 7D 28 48 8B CF E8 00 00 00 00 48 C7 C3 10 00  .}(H.....H..
  00000900: 00 00 48 8D 4D 10 48 8D 34 0B B8 3D 00 00 00 89  ..H.M.H.4.=....
  00000910: 06 48 C7 C3 10 00 00 00 48 8D 4D 10 48 8D 34 0B  .H....H.M.H.4.
  00000920: B8 3E 00 00 00 89 06 E8 00 00 00 00 48 8B F0 40  >.........H.@
  00000930: 8A 7D 08 40 8A D7 48 8B CE E8 00 00 00 00 4C 8B  .}.@.H.....L.
  00000940: E0 66 BB 00 01 66 44 23 E3 66 41 8B F4 0F B7 FE  f..fD#fA..
  00000950: B0 00 0F BE F0 3B FE 41 0F 94 C4 41 8A F4 40 80  ..;A..A.@.
  00000960: F6 01 EB 00 48 8D 7D 28 48 8B CF E8 00 00 00 00  ..H.}(H.....
  00000970: 40 8A C6 EB 12 48 8D 75 28 48 8B CE E8 00 00 00  @..H.u(H....
  00000980: 00 B3 00 8A C3 EB 00 48 8D 65 30 5B 5B 41 5D 41  ....H.e0[[A]A
  00000990: 5C 5F 5E 5D C3 55 56 57 53 53 48 83 EC 50 48 8D  \_^]UVWSSH.PH.
  000009A0: 6C 24 20 40 8A F1 40 88 75 08 48 B8 08 01 00 00  l$ @.@.u.H....
  000009B0: DB 19 06 5B 48 8B D0 48 8D 7D 10 48 8B CF E8 00  ..[H.H.}.H..
  000009C0: 00 00 00 48 8D 75 10 48 8B D6 48 8D 7D 28 48 8B  ...H.u.H.H.}(H.
  000009D0: CF E8 00 00 00 00 48 C7 C3 10 00 00 00 48 8D 4D  ....H....H.M
  000009E0: 10 48 8D 34 0B B8 42 00 00 00 89 06 48 C7 C3 10  .H.4.B.....H.
  000009F0: 00 00 00 48 8D 4D 10 48 8D 34 0B B8 43 00 00 00  ...H.M.H.4.C...
  00000A00: 89 06 40 8A 75 08 40 8A CE E8 00 00 00 00 48 8B  ..@.u.@.....H.
  00000A10: F8 EB 00 48 8D 75 28 48 8B CE E8 00 00 00 00 40  .H.u(H.....@
  00000A20: 8A C7 EB 12 48 8D 75 28 48 8B CE E8 00 00 00 00  ..H.u(H.....
  00000A30: B3 00 8A C3 EB 00 48 8D 65 30 5B 5B 5F 5E 5D C3  ...H.e0[[_^]
  00000A40: 55 56 57 53 53 48 83 EC 50 48 8D 6C 24 20 40 8A  UVWSSH.PH.l$ @.
  00000A50: F1 40 88 75 08 48 B8 09 01 00 00 DB 19 06 5B 48  @.u.H......[H
  00000A60: 8B D0 48 8D 7D 10 48 8B CF E8 00 00 00 00 48 8D  .H.}.H.....H.
  00000A70: 75 10 48 8B D6 48 8D 7D 28 48 8B CF E8 00 00 00  u.H.H.}(H....
  00000A80: 00 48 C7 C3 10 00 00 00 48 8D 4D 10 48 8D 34 0B  .H....H.M.H.4.
  00000A90: B8 47 00 00 00 89 06 48 C7 C3 10 00 00 00 48 8D  G.....H....H.
  00000AA0: 4D 10 48 8D 34 0B B8 48 00 00 00 89 06 40 8A 75  M.H.4.H.....@.u
  00000AB0: 08 40 8A CE E8 00 00 00 00 48 8B F8 EB 00 48 8D  .@.....H..H.
  00000AC0: 75 28 48 8B CE E8 00 00 00 00 40 8A C7 EB 12 48  u(H.....@..H
  00000AD0: 8D 75 28 48 8B CE E8 00 00 00 00 B3 00 8A C3 EB  .u(H.......
  00000AE0: 00 48 8D 65 30 5B 5B 5F 5E 5D C3                 .H.e0[[_^]

RELOCATIONS #1
                                                Symbol    Symbol
 Offset    Type              Applied To         Index     Name
 --------  ----------------  -----------------  --------  ------
 0000002E  REL32                      00000000         8  constructor_TraceEntry_26E1695E71A0E35C2150DA4E6BD1B4A55011008F
 00000041  REL32                      00000000         9  constructor_TraceGuard_BA2365F880229A4A3C2607337F6B3917C2419B9F
 00000072  REL32                      00000000         A  member_function_Instance_CharClassTable_6970C3056FDEEFAD632316A08C443335D3B0B423
 00000084  REL32                      00000000         B  member_function_GetCharacterClass_CharClassTable_54E7EF121ECEA2E82345B3CA1A4A75207B96D79A
 000000B6  REL32                      00000000         C  destructor_TraceGuard_82262E3D79E486D306C249AA83E2FB687C3A84E2
 000000C7  REL32                      00000000         C  destructor_TraceGuard_82262E3D79E486D306C249AA83E2FB687C3A84E2
 0000010D  REL32                      00000000         8  constructor_TraceEntry_26E1695E71A0E35C2150DA4E6BD1B4A55011008F
 00000120  REL32                      00000000         9  constructor_TraceGuard_BA2365F880229A4A3C2607337F6B3917C2419B9F
 00000151  REL32                      00000000         A  member_function_Instance_CharClassTable_6970C3056FDEEFAD632316A08C443335D3B0B423
 00000163  REL32                      00000000         B  member_function_GetCharacterClass_CharClassTable_54E7EF121ECEA2E82345B3CA1A4A75207B96D79A
 00000195  REL32                      00000000         C  destructor_TraceGuard_82262E3D79E486D306C249AA83E2FB687C3A84E2
 000001A6  REL32                      00000000         C  destructor_TraceGuard_82262E3D79E486D306C249AA83E2FB687C3A84E2
 000001EC  REL32                      00000000         8  constructor_TraceEntry_26E1695E71A0E35C2150DA4E6BD1B4A55011008F
 000001FF  REL32                      00000000         9  constructor_TraceGuard_BA2365F880229A4A3C2607337F6B3917C2419B9F
 00000230  REL32                      00000000         A  member_function_Instance_CharClassTable_6970C3056FDEEFAD632316A08C443335D3B0B423
 00000242  REL32                      00000000         B  member_function_GetCharacterClass_CharClassTable_54E7EF121ECEA2E82345B3CA1A4A75207B96D79A
 00000274  REL32                      00000000         C  destructor_TraceGuard_82262E3D79E486D306C249AA83E2FB687C3A84E2
 00000285  REL32                      00000000         C  destructor_TraceGuard_82262E3D79E486D306C249AA83E2FB687C3A84E2
 000002CB  REL32                      00000000         8  constructor_TraceEntry_26E1695E71A0E35C2150DA4E6BD1B4A55011008F
 000002DE  REL32                      00000000         9  constructor_TraceGuard_BA2365F880229A4A3C2607337F6B3917C2419B9F
 0000030F  REL32                      00000000         A  member_function_Instance_CharClassTable_6970C3056FDEEFAD632316A08C443335D3B0B423
 00000321  REL32                      00000000         B  member_function_GetCharacterClass_CharClassTable_54E7EF121ECEA2E82345B3CA1A4A75207B96D79A
 00000353  REL32                      00000000         C  destructor_TraceGuard_82262E3D79E486D306C249AA83E2FB687C3A84E2
 00000364  REL32                      00000000         C  destructor_TraceGuard_82262E3D79E486D306C249AA83E2FB687C3A84E2
 000003AA  REL32                      00000000         8  constructor_TraceEntry_26E1695E71A0E35C2150DA4E6BD1B4A55011008F
 000003BD  REL32                      00000000         9  constructor_TraceGuard_BA2365F880229A4A3C2607337F6B3917C2419B9F
 000003EE  REL32                      00000000         A  member_function_Instance_CharClassTable_6970C3056FDEEFAD632316A08C443335D3B0B423
 00000400  REL32                      00000000         B  member_function_GetCharacterClass_CharClassTable_54E7EF121ECEA2E82345B3CA1A4A75207B96D79A
 00000432  REL32                      00000000         C  destructor_TraceGuard_82262E3D79E486D306C249AA83E2FB687C3A84E2
 00000443  REL32                      00000000         C  destructor_TraceGuard_82262E3D79E486D306C249AA83E2FB687C3A84E2
 00000489  REL32                      00000000         8  constructor_TraceEntry_26E1695E71A0E35C2150DA4E6BD1B4A55011008F
 0000049C  REL32                      00000000         9  constructor_TraceGuard_BA2365F880229A4A3C2607337F6B3917C2419B9F
 000004CD  REL32                      00000000         A  member_function_Instance_CharClassTable_6970C3056FDEEFAD632316A08C443335D3B0B423
 000004DF  REL32                      00000000         B  member_function_GetCharacterClass_CharClassTable_54E7EF121ECEA2E82345B3CA1A4A75207B96D79A
 00000511  REL32                      00000000         C  destructor_TraceGuard_82262E3D79E486D306C249AA83E2FB687C3A84E2
 00000522  REL32                      00000000         C  destructor_TraceGuard_82262E3D79E486D306C249AA83E2FB687C3A84E2
 00000568  REL32                      00000000         8  constructor_TraceEntry_26E1695E71A0E35C2150DA4E6BD1B4A55011008F
 0000057B  REL32                      00000000         9  constructor_TraceGuard_BA2365F880229A4A3C2607337F6B3917C2419B9F
 000005AC  REL32                      00000000         A  member_function_Instance_CharClassTable_6970C3056FDEEFAD632316A08C443335D3B0B423
 000005BE  REL32                      00000000         B  member_function_GetCharacterClass_CharClassTable_54E7EF121ECEA2E82345B3CA1A4A75207B96D79A
 000005F0  REL32                      00000000         C  destructor_TraceGuard_82262E3D79E486D306C249AA83E2FB687C3A84E2
 00000601  REL32                      00000000         C  destructor_TraceGuard_82262E3D79E486D306C249AA83E2FB687C3A84E2
 00000647  REL32                      00000000         8  constructor_TraceEntry_26E1695E71A0E35C2150DA4E6BD1B4A55011008F
 0000065A  REL32                      00000000         9  constructor_TraceGuard_BA2365F880229A4A3C2607337F6B3917C2419B9F
 0000068B  REL32                      00000000         A  member_function_Instance_CharClassTable_6970C3056FDEEFAD632316A08C443335D3B0B423
 0000069D  REL32                      00000000         B  member_function_GetCharacterClass_CharClassTable_54E7EF121ECEA2E82345B3CA1A4A75207B96D79A
 000006CF  REL32                      00000000         C  destructor_TraceGuard_82262E3D79E486D306C249AA83E2FB687C3A84E2
 000006E0  REL32                      00000000         C  destructor_TraceGuard_82262E3D79E486D306C249AA83E2FB687C3A84E2
 00000726  REL32                      00000000         8  constructor_TraceEntry_26E1695E71A0E35C2150DA4E6BD1B4A55011008F
 00000739  REL32                      00000000         9  constructor_TraceGuard_BA2365F880229A4A3C2607337F6B3917C2419B9F
 0000076A  REL32                      00000000         A  member_function_Instance_CharClassTable_6970C3056FDEEFAD632316A08C443335D3B0B423
 0000077C  REL32                      00000000         B  member_function_GetCharacterClass_CharClassTable_54E7EF121ECEA2E82345B3CA1A4A75207B96D79A
 000007AE  REL32                      00000000         C  destructor_TraceGuard_82262E3D79E486D306C249AA83E2FB687C3A84E2
 000007BF  REL32                      00000000         C  destructor_TraceGuard_82262E3D79E486D306C249AA83E2FB687C3A84E2
 00000805  REL32                      00000000         8  constructor_TraceEntry_26E1695E71A0E35C2150DA4E6BD1B4A55011008F
 00000818  REL32                      00000000         9  constructor_TraceGuard_BA2365F880229A4A3C2607337F6B3917C2419B9F
 00000849  REL32                      00000000         A  member_function_Instance_CharClassTable_6970C3056FDEEFAD632316A08C443335D3B0B423
 0000085B  REL32                      00000000         B  member_function_GetCharacterClass_CharClassTable_54E7EF121ECEA2E82345B3CA1A4A75207B96D79A
 0000088D  REL32                      00000000         C  destructor_TraceGuard_82262E3D79E486D306C249AA83E2FB687C3A84E2
 0000089E  REL32                      00000000         C  destructor_TraceGuard_82262E3D79E486D306C249AA83E2FB687C3A84E2
 000008E4  REL32                      00000000         8  constructor_TraceEntry_26E1695E71A0E35C2150DA4E6BD1B4A55011008F
 000008F7  REL32                      00000000         9  constructor_TraceGuard_BA2365F880229A4A3C2607337F6B3917C2419B9F
 00000928  REL32                      00000000         A  member_function_Instance_CharClassTable_6970C3056FDEEFAD632316A08C443335D3B0B423
 0000093A  REL32                      00000000         B  member_function_GetCharacterClass_CharClassTable_54E7EF121ECEA2E82345B3CA1A4A75207B96D79A
 0000096C  REL32                      00000000         C  destructor_TraceGuard_82262E3D79E486D306C249AA83E2FB687C3A84E2
 0000097D  REL32                      00000000         C  destructor_TraceGuard_82262E3D79E486D306C249AA83E2FB687C3A84E2
 000009BF  REL32                      00000000         8  constructor_TraceEntry_26E1695E71A0E35C2150DA4E6BD1B4A55011008F
 000009D2  REL32                      00000000         9  constructor_TraceGuard_BA2365F880229A4A3C2607337F6B3917C2419B9F
 00000A0A  REL32                      00000000         D  RtmAsciiToUpper
 00000A1B  REL32                      00000000         C  destructor_TraceGuard_82262E3D79E486D306C249AA83E2FB687C3A84E2
 00000A2C  REL32                      00000000         C  destructor_TraceGuard_82262E3D79E486D306C249AA83E2FB687C3A84E2
 00000A6A  REL32                      00000000         8  constructor_TraceEntry_26E1695E71A0E35C2150DA4E6BD1B4A55011008F
 00000A7D  REL32                      00000000         9  constructor_TraceGuard_BA2365F880229A4A3C2607337F6B3917C2419B9F
 00000AB5  REL32                      00000000         E  RtmAsciiToLower
 00000AC6  REL32                      00000000         C  destructor_TraceGuard_82262E3D79E486D306C249AA83E2FB687C3A84E2
 00000AD7  REL32                      00000000         C  destructor_TraceGuard_82262E3D79E486D306C249AA83E2FB687C3A84E2

SECTION HEADER #2
   .data name
       0 physical address
       0 virtual address
       0 size of raw data
       0 file pointer to raw data
       0 file pointer to relocation table
       0 file pointer to line numbers
       0 number of relocations
       0 number of line numbers
C0500040 flags
         Initialized Data
         16 byte align
         Read Write

SECTION HEADER #3
.debug$S name
       0 physical address
       0 virtual address
      94 size of raw data
     E70 file pointer to raw data (00000E70 to 00000F03)
       0 file pointer to relocation table
       0 file pointer to line numbers
       0 number of relocations
       0 number of line numbers
42100040 flags
         Initialized Data
         Discardable
         1 byte align
         Read Only

RAW DATA #3
  00000000: 04 00 00 00 F1 00 00 00 88 00 00 00 4D 00 01 11  ...........M...
  00000010: 00 00 00 00 44 3A 5C 77 6F 72 6B 5C 63 6D 61 6A  ....D:\work\cmaj
  00000020: 6F 72 2D 6D 6F 64 5C 63 6D 61 6A 6F 72 5C 73 62  or-mod\cmajor\sb
  00000030: 69 6E 5C 6D 61 6B 65 5F 63 6F 6D 70 61 72 65 5F  in\make_compare_
  00000040: 70 72 6F 6A 65 63 74 5C 41 73 63 69 69 43 68 61  project\AsciiCha
  00000050: 72 2E 6D 61 73 6D 2E 6F 62 6A 00 37 00 3C 11 03  r.masm.obj.7.<..
  00000060: 02 00 00 D0 00 00 00 00 00 00 00 00 00 0E 00 2B  ..............+
  00000070: 00 F8 87 00 00 4D 69 63 72 6F 73 6F 66 74 20 28  ....Microsoft (
  00000080: 52 29 20 4D 61 63 72 6F 20 41 73 73 65 6D 62 6C  R) Macro Assembl
  00000090: 65 72 00 00                                      er..

COFF SYMBOL TABLE
000 010387F8 ABS    notype       Static       | @comp.id
001 00000010 ABS    notype       Static       | @feat.00
002 00000000 SECT1  notype       Static       | .text$mn
    Section length  AEB, #relocs   4C, #linenums    0, checksum        0
004 00000000 SECT2  notype       Static       | .data
    Section length    0, #relocs    0, #linenums    0, checksum        0
006 00000000 SECT3  notype       Static       | .debug$S
    Section length   94, #relocs    0, #linenums    0, checksum        0
008 00000000 UNDEF  notype       External     | constructor_TraceEntry_26E1695E71A0E35C2150DA4E6BD1B4A55011008F
009 00000000 UNDEF  notype       External     | constructor_TraceGuard_BA2365F880229A4A3C2607337F6B3917C2419B9F
00A 00000000 UNDEF  notype       External     | member_function_Instance_CharClassTable_6970C3056FDEEFAD632316A08C443335D3B0B423
00B 00000000 UNDEF  notype       External     | member_function_GetCharacterClass_CharClassTable_54E7EF121ECEA2E82345B3CA1A4A75207B96D79A
00C 00000000 UNDEF  notype       External     | destructor_TraceGuard_82262E3D79E486D306C249AA83E2FB687C3A84E2
00D 00000000 UNDEF  notype       External     | RtmAsciiToUpper
00E 00000000 UNDEF  notype       External     | RtmAsciiToLower
00F 00000000 SECT1  notype ()    External     | function_IsLower_D871AEE2B278BF1639BE27261FF1E453CE1D5D57
010 000000DF SECT1  notype ()    External     | function_IsUpper_52ECB3BE04C358D00A9392FDC51A998AABFBA358
011 000001BE SECT1  notype ()    External     | function_IsAlpha_50A612392EF594FEF831443C8C1B36325C20E2F5
012 0000029D SECT1  notype ()    External     | function_IsDigit_781C5B63930ED7D72B8397CAC6844621605C2CFE
013 0000037C SECT1  notype ()    External     | function_IsAlphanumeric_E3998B70F88DCCEA01FC564EFDAD73114AFC1E39
014 0000045B SECT1  notype ()    External     | function_IsHexDigit_DFE06D5B152C2E97B165F2723C60ED8FACC38CED
015 0000053A SECT1  notype ()    External     | function_IsControl_DB7DC839D88221E16EB1F7B83CC7D8384BE679E7
016 00000619 SECT1  notype ()    External     | function_IsGraphic_48FF5473F9D9CD0D67E40E7D89D4525E974D589E
017 000006F8 SECT1  notype ()    External     | function_IsPrintable_A6ECB0EA8BAB0CA3284CC2F4A73759D4650A3B56
018 000007D7 SECT1  notype ()    External     | function_IsPunctuation_7AC80D723F596A20B0B5AE04A4078D1EAAE51133
019 000008B6 SECT1  notype ()    External     | function_IsSpace_283A065AAD9D9CCC4B17DA021CEF6BFDB51E092E
01A 00000995 SECT1  notype ()    External     | function_AsciiToUpper_EE5321D932DD7E87BE1EAD94586C7DD97DA9AC49
01B 00000A40 SECT1  notype ()    External     | function_AsciiToLower_3EFEFA398D899733B957066715008401C155FB34

String Table Size = 0x4A2 bytes

  Summary

           0 .data
          94 .debug$S
         AEB .text$mn
